Archive member included to satisfy reference by file (symbol)

..\src\config\default\touch\lib\qtm_acq_samc21_0x0020.X.a(sam_acq_x_samc21.o)
                              build/default/production/_ext/162237794/touch.o (qtm_acquisition_process)
..\src\config\default\touch\lib\qtm_touch_key_cm0p_0x0002.X.a(sam_touch_key_x_cm0p.o)
                              build/default/production/_ext/162237794/touch.o (qtm_update_qtlib_timer)
..\src\config\default\touch\lib\qtm_freq_hop_cm0p_0x0006.X.a(sam_freq_hop_x_cm0p.o)
                              build/default/production/_ext/162237794/touch.o (qtm_freq_hop)
..\src\config\default\touch\lib\qtm_surface_cs_2t_cm0p_0x0025.X.a(sam_surface_cs_2t_x_cm0p.o)
                              build/default/production/_ext/162237794/touch.o (qtm_surface_cs2t_process)
..\src\config\default\touch\lib\qtm_surface_gestures_cm0p_0x0023.X.a(sam_surface_gestures_x_cm0p.o)
                              build/default/production/_ext/1662611032/kronocommuart_sam.o (qtm_gestures_2d_clearGesture)
c:/program files/microchip/xc32/v4.21/bin/bin/../../lib/gcc/pic32c/8.3.1/../../../../pic32c/lib/thumb/v6-m/nofp\libpic32c.a(data_init_wrapper.o)
                              build/default/production/_ext/1171490990/startup_xc32.o (__pic32c_data_initialization)
c:/program files/microchip/xc32/v4.21/bin/bin/../../lib/gcc/pic32c/8.3.1/../../../../pic32c/lib/thumb/v6-m/nofp\libpic32c.a(data_init_0_1.o)
                              c:/program files/microchip/xc32/v4.21/bin/bin/../../lib/gcc/pic32c/8.3.1/../../../../pic32c/lib/thumb/v6-m/nofp\libpic32c.a(data_init_wrapper.o) (__pic32c_data_initialization_impl)
c:/program files/microchip/xc32/v4.21/bin/bin/../../lib/gcc/pic32c/8.3.1/../../../../pic32c/lib/thumb/v6-m/nofp\libc-musl.a(__libc_start_main.o)
                              build/default/production/_ext/1171490990/startup_xc32.o (__libc_init_array)
c:/program files/microchip/xc32/v4.21/bin/bin/../../lib/gcc/pic32c/8.3.1/../../../../pic32c/lib/thumb/v6-m/nofp\libc-musl.a(libc.o)
                              c:/program files/microchip/xc32/v4.21/bin/bin/../../lib/gcc/pic32c/8.3.1/../../../../pic32c/lib/thumb/v6-m/nofp\libc-musl.a(__libc_start_main.o) (__progname_full)
c:/program files/microchip/xc32/v4.21/bin/bin/../../lib/gcc/pic32c/8.3.1/../../../../pic32c/lib/thumb/v6-m/nofp\libc-musl.a(__sio_sprintf_doux.o)
                              (_sprintf_cdnopuxX)
c:/program files/microchip/xc32/v4.21/bin/bin/../../lib/gcc/pic32c/8.3.1/../../../../pic32c/lib/thumb/v6-m/nofp\libc-musl.a(__fmt_d.o)
                              c:/program files/microchip/xc32/v4.21/bin/bin/../../lib/gcc/pic32c/8.3.1/../../../../pic32c/lib/thumb/v6-m/nofp\libc-musl.a(__sio_sprintf_doux.o) (__fmt_d_needed)
c:/program files/microchip/xc32/v4.21/bin/bin/../../lib/gcc/pic32c/8.3.1/../../../../pic32c/lib/thumb/v6-m/nofp\libc-musl.a(__fmt_o.o)
                              c:/program files/microchip/xc32/v4.21/bin/bin/../../lib/gcc/pic32c/8.3.1/../../../../pic32c/lib/thumb/v6-m/nofp\libc-musl.a(__sio_sprintf_doux.o) (__fmt_o_needed)
c:/program files/microchip/xc32/v4.21/bin/bin/../../lib/gcc/pic32c/8.3.1/../../../../pic32c/lib/thumb/v6-m/nofp\libc-musl.a(__fmt_s.o)
                              c:/program files/microchip/xc32/v4.21/bin/bin/../../lib/gcc/pic32c/8.3.1/../../../../pic32c/lib/thumb/v6-m/nofp\libc-musl.a(__sio_sprintf_doux.o) (__fmt_s_needed)
c:/program files/microchip/xc32/v4.21/bin/bin/../../lib/gcc/pic32c/8.3.1/../../../../pic32c/lib/thumb/v6-m/nofp\libc-musl.a(__fmt_u.o)
                              c:/program files/microchip/xc32/v4.21/bin/bin/../../lib/gcc/pic32c/8.3.1/../../../../pic32c/lib/thumb/v6-m/nofp\libc-musl.a(__fmt_d.o) (__cvt_u)
c:/program files/microchip/xc32/v4.21/bin/bin/../../lib/gcc/pic32c/8.3.1/../../../../pic32c/lib/thumb/v6-m/nofp\libc-musl.a(__fmt_x.o)
                              c:/program files/microchip/xc32/v4.21/bin/bin/../../lib/gcc/pic32c/8.3.1/../../../../pic32c/lib/thumb/v6-m/nofp\libc-musl.a(__sio_sprintf_doux.o) (__fmt_x_needed)
c:/program files/microchip/xc32/v4.21/bin/bin/../../lib/gcc/pic32c/8.3.1/../../../../pic32c/lib/thumb/v6-m/nofp\libc-musl.a(__pop_int.o)
                              c:/program files/microchip/xc32/v4.21/bin/bin/../../lib/gcc/pic32c/8.3.1/../../../../pic32c/lib/thumb/v6-m/nofp\libc-musl.a(__sio_sprintf_doux.o) (__pop_int_needed)
c:/program files/microchip/xc32/v4.21/bin/bin/../../lib/gcc/pic32c/8.3.1/../../../../pic32c/lib/thumb/v6-m/nofp\libc-musl.a(__pop_ptr.o)
                              c:/program files/microchip/xc32/v4.21/bin/bin/../../lib/gcc/pic32c/8.3.1/../../../../pic32c/lib/thumb/v6-m/nofp\libc-musl.a(__sio_sprintf_doux.o) (__pop_ptr_needed)
c:/program files/microchip/xc32/v4.21/bin/bin/../../lib/gcc/pic32c/8.3.1/../../../../pic32c/lib/thumb/v6-m/nofp\libc-musl.a(__printf_core.o)
                              c:/program files/microchip/xc32/v4.21/bin/bin/../../lib/gcc/pic32c/8.3.1/../../../../pic32c/lib/thumb/v6-m/nofp\libc-musl.a(__fmt_d.o) (__pad)
c:/program files/microchip/xc32/v4.21/bin/bin/../../lib/gcc/pic32c/8.3.1/../../../../pic32c/lib/thumb/v6-m/nofp\libc-musl.a(atoi.o)
                              c:/program files/microchip/xc32/v4.21/bin/bin/../../lib/gcc/pic32c/8.3.1/../../../../pic32c/lib/thumb/v6-m/nofp\libc-musl.a(__printf_core.o) (atoi)
c:/program files/microchip/xc32/v4.21/bin/bin/../../lib/gcc/pic32c/8.3.1/../../../../pic32c/lib/thumb/v6-m/nofp\libc-musl.a(memcpy.o)
                              build/default/production/_ext/1593096446/plib_nvmctrl.o (memcpy)
c:/program files/microchip/xc32/v4.21/bin/bin/../../lib/gcc/pic32c/8.3.1/../../../../pic32c/lib/thumb/v6-m/nofp\libc-musl.a(memset.o)
                              ..\src\config\default\touch\lib\qtm_surface_gestures_cm0p_0x0023.X.a(sam_surface_gestures_x_cm0p.o) (memset)
c:/program files/microchip/xc32/v4.21/bin/bin/../../lib/gcc/pic32c/8.3.1/../../../../pic32c/lib/thumb/v6-m/nofp\libc-musl.a(strlen.o)
                              build/default/production/_ext/1662611032/kronocommuart_sam.o (strlen)
c:/program files/microchip/xc32/v4.21/bin/bin/../../lib/gcc/pic32c/8.3.1/../../../../pic32c/lib/thumb/v6-m/nofp\libc-musl.a(tolower.o)
                              c:/program files/microchip/xc32/v4.21/bin/bin/../../lib/gcc/pic32c/8.3.1/../../../../pic32c/lib/thumb/v6-m/nofp\libc-musl.a(__printf_core.o) (tolower)
c:/program files/microchip/xc32/v4.21/bin/bin/../../lib/gcc/pic32c/8.3.1/../../../../pic32c/lib/thumb/v6-m/nofp\libc-musl.a(toupper.o)
                              c:/program files/microchip/xc32/v4.21/bin/bin/../../lib/gcc/pic32c/8.3.1/../../../../pic32c/lib/thumb/v6-m/nofp\libc-musl.a(__fmt_x.o) (toupper)
c:/program files/microchip/xc32/v4.21/bin/bin/../../lib/gcc/pic32c/8.3.1/../../../../pic32c/lib/thumb/v6-m/nofp\libc-musl.a(__environ.o)
                              c:/program files/microchip/xc32/v4.21/bin/bin/../../lib/gcc/pic32c/8.3.1/../../../../pic32c/lib/thumb/v6-m/nofp\libc-musl.a(__libc_start_main.o) (__environ)
c:/program files/microchip/xc32/v4.21/bin/bin/../../lib/gcc/pic32c/8.3.1/../../../../pic32c/lib/thumb/v6-m/nofp\libc-musl.a(__errno_location.o)
                              c:/program files/microchip/xc32/v4.21/bin/bin/../../lib/gcc/pic32c/8.3.1/../../../../pic32c/lib/thumb/v6-m/nofp\libc-musl.a(__printf_core.o) (__errno_val)
c:/program files/microchip/xc32/v4.21/bin/bin/../../lib/gcc/pic32c/8.3.1/../../../../pic32c/lib/thumb/v6-m/nofp\libc-musl.a(__int_vsprintf.o)
                              c:/program files/microchip/xc32/v4.21/bin/bin/../../lib/gcc/pic32c/8.3.1/../../../../pic32c/lib/thumb/v6-m/nofp\libc-musl.a(__sio_sprintf_doux.o) (__vsprintf)
c:/program files/microchip/xc32/v4.21/bin/bin/../../lib/gcc/pic32c/8.3.1/../../../../pic32c/lib/thumb/v6-m/nofp\libc-musl.a(__pop_float.o)
                              c:/program files/microchip/xc32/v4.21/bin/bin/../../lib/gcc/pic32c/8.3.1/../../../../pic32c/lib/thumb/v6-m/nofp\libc-musl.a(__printf_core.o) (__pop_float)
c:/program files/microchip/xc32/v4.21/bin/bin/../../lib/gcc/pic32c/8.3.1/../../../../pic32c/lib/thumb/v6-m/nofp\libc-musl.a(__int_vsnprintf.o)
                              c:/program files/microchip/xc32/v4.21/bin/bin/../../lib/gcc/pic32c/8.3.1/../../../../pic32c/lib/thumb/v6-m/nofp\libc-musl.a(__int_vsprintf.o) (__vsnprintf)
c:/program files/microchip/xc32/v4.21/bin/bin/../../lib/gcc/pic32c/8.3.1/../../../../pic32c/lib/thumb/v6-m/nofp\libc-musl.a(__int_vfprintf.o)
                              c:/program files/microchip/xc32/v4.21/bin/bin/../../lib/gcc/pic32c/8.3.1/../../../../pic32c/lib/thumb/v6-m/nofp\libc-musl.a(__int_vsnprintf.o) (__vfprintf)
c:/program files/microchip/xc32/v4.21/bin/bin/../../lib/gcc/pic32c/8.3.1/thumb/v6-m/nofp\libgcc.a(_thumb1_case_uhi.o)
                              ..\src\config\default\touch\lib\qtm_acq_samc21_0x0020.X.a(sam_acq_x_samc21.o) (__gnu_thumb1_case_uhi)
c:/program files/microchip/xc32/v4.21/bin/bin/../../lib/gcc/pic32c/8.3.1/thumb/v6-m/nofp\libgcc.a(_udivsi3.o)
                              build/default/production/_ext/162237794/touch.o (__aeabi_uidiv)
c:/program files/microchip/xc32/v4.21/bin/bin/../../lib/gcc/pic32c/8.3.1/thumb/v6-m/nofp\libgcc.a(_dvmd_tls.o)
                              c:/program files/microchip/xc32/v4.21/bin/bin/../../lib/gcc/pic32c/8.3.1/thumb/v6-m/nofp\libgcc.a(_udivsi3.o) (__aeabi_idiv0)
c:/program files/microchip/xc32/v4.21/bin/bin/../../lib/gcc/pic32c/8.3.1/thumb/v6-m/nofp\libgcc.a(_aeabi_uldivmod.o)
                              build/default/production/_ext/504274921/plib_sercom4_usart.o (__aeabi_uldivmod)
c:/program files/microchip/xc32/v4.21/bin/bin/../../lib/gcc/pic32c/8.3.1/thumb/v6-m/nofp\libgcc.a(_udivmoddi4.o)
                              c:/program files/microchip/xc32/v4.21/bin/bin/../../lib/gcc/pic32c/8.3.1/thumb/v6-m/nofp\libgcc.a(_aeabi_uldivmod.o) (__udivmoddi4)
c:/program files/microchip/xc32/v4.21/bin/bin/../../lib/gcc/pic32c/8.3.1/thumb/v6-m/nofp\libgcc.a(_lshrdi3.o)
                              c:/program files/microchip/xc32/v4.21/bin/bin/../../lib/gcc/pic32c/8.3.1/thumb/v6-m/nofp\libgcc.a(_udivmoddi4.o) (__aeabi_llsr)
c:/program files/microchip/xc32/v4.21/bin/bin/../../lib/gcc/pic32c/8.3.1/thumb/v6-m/nofp\libgcc.a(_ashldi3.o)
                              c:/program files/microchip/xc32/v4.21/bin/bin/../../lib/gcc/pic32c/8.3.1/thumb/v6-m/nofp\libgcc.a(_udivmoddi4.o) (__aeabi_llsl)
c:/program files/microchip/xc32/v4.21/bin/bin/../../lib/gcc/pic32c/8.3.1/thumb/v6-m/nofp\libgcc.a(_clzdi2.o)
                              c:/program files/microchip/xc32/v4.21/bin/bin/../../lib/gcc/pic32c/8.3.1/thumb/v6-m/nofp\libgcc.a(_udivmoddi4.o) (__clzdi2)
c:/program files/microchip/xc32/v4.21/bin/bin/../../lib/gcc/pic32c/8.3.1/thumb/v6-m/nofp\libgcc.a(_clzsi2.o)
                              c:/program files/microchip/xc32/v4.21/bin/bin/../../lib/gcc/pic32c/8.3.1/thumb/v6-m/nofp\libgcc.a(_clzdi2.o) (__clzsi2)

Allocating common symbols
Common symbol       size              file

timer               0x2               ..\src\config\default\touch\lib\qtm_surface_gestures_cm0p_0x0023.X.a(sam_surface_gestures_x_cm0p.o)
p_qtm_drivenshield_config
                    0x4               ..\src\config\default\touch\lib\qtm_acq_samc21_0x0020.X.a(sam_acq_x_samc21.o)
cfgRam              0x4               ..\src\config\default\touch\lib\qtm_surface_gestures_cm0p_0x0023.X.a(sam_surface_gestures_x_cm0p.o)
qtm_acquisition_control_working_set_ptr
                    0x4               ..\src\config\default\touch\lib\qtm_acq_samc21_0x0020.X.a(sam_acq_x_samc21.o)
qtm_raw_data_measurements_ptr
                    0x4               ..\src\config\default\touch\lib\qtm_acq_samc21_0x0020.X.a(sam_acq_x_samc21.o)

Microchip PIC32 Memory-Usage Report

ROM Program-Memory Usage
section                    address  length [bytes]      (dec)  Description
-------                 ----------  -------------------------  -----------
.vectors                         0           0xbc         188   
.text                         0xbc           0x20          32  App's exec code 
.ARM.exidx                    0xdc            0x8           8   
.text.qtm_surface_cs2t_       0xe4          0x908        2312   
.text.qtm_gestures_2d_p      0x9ec          0x4f0        1264   
.dinit                       0xedc          0x4c0        1216   
.text.qtm_key_sensors_p     0x139c          0x48c        1164   
.text.qtm_acquisition_p     0x1828          0x350         848   
.text.__printf_core         0x1b78          0x324         804   
.text.Krono_UpdateBuffe     0x1e9c          0x2e0         736   
.text.appendEvent           0x217c          0x274         628   
.text.uart_process          0x23f0          0x1a4         420   
.text.qtm_measure_node      0x2594          0x19c         412   
.text.SERCOM4_USART_Int     0x2730          0x16c         364   
.text.qtm_ptc_init_acqu     0x289c          0x134         308   
.text.__fmt_x               0x29d0          0x134         308   
.text.qtm_freq_hop          0x2b04          0x108         264   
.rodata                     0x2c0c          0x100         256  Read-only const 
.text                       0x2d0c           0xe2         226  App's exec code 
.text.Dummy_Handler         0x2dee            0x2           2   
.text.qtm_ptc_start_mea     0x2df0           0xd4         212   
.text.touch_process         0x2ec4           0xd0         208   
.text.CLOCK_Initialize      0x2f94           0xc4         196   
.text.get_interpolated_     0x3058           0xc0         192   
.text.__pop_int             0x3118           0xbe         190   
.text.__fmt_d               0x31d6           0xb2         178   
.text.Krono_memory_map_     0x3288           0xa8         168   
.text.qtm_samc21_ptc_ha     0x3330           0xa4         164   
.text.uart_send_touch_g     0x33d4           0x98         152   
.text.uart_init_debug_d     0x346c           0x90         144   
.text.check_for_twin_pe     0x34fc           0x8c         140   
.text                       0x3588           0x8c         140  App's exec code 
.text.charge_share_test     0x3614           0x88         136   
.text.__cvt_u               0x369c           0x7e         126   
.text.check_for_aks_blo     0x371a           0x7a         122   
.text.__pad                 0x3794           0x7a         122   
.text.NonMaskableInt_Ha     0x380e            0x2           2   
.text.SERCOM4_USART_Wri     0x3810           0x74         116   
.text.__pic32c_data_ini     0x3884           0x70         112   
.text.__fmt_o               0x38f4           0x6e         110   
.text.PORT_Initialize       0x3962           0x68         104   
.text.HardFault_Handler     0x39ca            0x2           2   
.text.touch_init            0x39cc           0x68         104   
.text.__pop_ptr             0x3a34           0x68         104   
.text.qtm_load_group_co     0x3a9c           0x60          96   
.text.touch_timer_handl     0x3afc           0x5c          92   
.text.divide                0x3b58           0x5c          92   
.text.get_axis_contact_     0x3bb4           0x5c          92   
.text.deadband_and_scal     0x3c10           0x5c          92   
.text.__libc_start_init     0x3c6c           0x5c          92   
.text.NVIC_Initialize       0x3cc8           0x58          88   
.text.SERCOM4_USART_Ini     0x3d20           0x58          88   
.text.__fmt_u               0x3d78           0x56          86   
.text.Dummy_App_Func        0x3dce            0x2           2   
.text.median_filter_upd     0x3dd0           0x54          84   
.text.krono_tx_complete     0x3e24           0x50          80   
.text.qtm_calibrate_sen     0x3e74           0x50          80   
.text.__fmt_s               0x3ec4           0x50          80   
.text.__vsnprintf           0x3f14           0x50          80   
.text.Krono_memory_map_     0x3f64           0x4c          76   
.text                       0x3fb0           0x48          72  App's exec code 
.text.Reset_Handler         0x3ff8           0x48          72   
.text.SERCOM4_USART_Rea     0x4040           0x44          68   
.text.uart_send_header      0x4084           0x44          68   
.text.filter_position_i     0x40c8           0x42          66   
.text.__dummy               0x410a            0x2           2   
.text.select_next_chann     0x410c           0x40          64   
.text.atoi                  0x414c           0x40          64   
.text                       0x418c           0x40          64  App's exec code 
.text.getSwipeDirection     0x41cc           0x3c          60   
.text                       0x4208           0x3c          60  App's exec code 
.text.touch_timer_confi     0x4244           0x38          56   
.text.RTC_Initialize        0x427c           0x34          52   
.text.krono_rx_complete     0x42b0           0x34          52   
.text.__fmt_state           0x42e4           0x34          52   
.text.SYS_Initialize        0x4318           0x30          48   
.rodata                     0x4348           0x2e          46  Read-only const 
.text.RTC_InterruptHand     0x4378           0x2c          44   
.text.SERCOM4_USART_Err     0x43a4           0x2c          44   
.text.uart_send_data        0x43d0           0x2c          44   
.text.qtm_init_surface_     0x43fc           0x2a          42   
.text.__pop_float           0x4426           0x2a          42   
.text.uart_get_char         0x4450           0x28          40   
.text.uart_send_data_wa     0x4478           0x28          40   
.text.__string_out          0x44a0           0x26          38   
.text.uart_min_num_byte     0x44c8           0x24          36   
.text.qtm_ptc_clear_int     0x44ec           0x24          36   
.text.qtm_init_gestures     0x4510           0x24          36   
.text.qtm_enable_sensor     0x4534           0x20          32   
.text.qtm_init_sensor_k     0x4554           0x1e          30   
.text.RTC_Timer32Start      0x4574           0x1c          28   
.text.RTC_Timer32Stop       0x4590           0x1c          28   
.rodata                     0x45ac           0x34          52  Read-only const 
.text.sync_config           0x45e0           0x18          24   
.text.get_key_delta         0x45f8           0x18          24   
.text.__vfprintf            0x4610           0x18          24   
.text                       0x4628           0x48          72  App's exec code 
.text.__wrap_sprintf        0x4670           0x16          22   
.text.RTC_Timer32Counte     0x4688           0x14          20   
.text.RTC_Timer32Compar     0x469c           0x14          20   
.text.qtm_ptc_qtlib_ass     0x46b0           0x14          20   
.text.Gestures_QuerySta     0x46c4           0x14          20   
.text.qtm_gestures_2d_c     0x46d8           0x14          20   
.text.qtm_update_gestur     0x46ec           0x14          20   
.text.__vsprintf            0x4700           0x14          20   
.text                       0x4714           0x14          20  App's exec code 
.text.memcpy                0x4728           0x12          18   
.text.EVSYS_Initialize      0x473c           0x10          16   
.text.qtm_update_qtlib_     0x474c           0x10          16   
.text.memset                0x475c           0x10          16   
.text.strlen                0x476c           0x10          16   
.text.main                  0x477c            0xe          14   
.text.tolower               0x478a            0xe          14   
.text.toupper               0x4798            0xe          14   
.text.NVMCTRL_Initializ     0x47a8            0xc          12   
.text.RTC_Timer32Callba     0x47b4            0xc          12   
.text.SERCOM4_USART_Wri     0x47c0            0xc          12   
.text.SERCOM4_USART_Rea     0x47cc            0xc          12   
.text.qtm_measure_compl     0x47d8            0xc          12   
.text.PTC_Handler           0x47e4            0xc          12   
.text.rtc_cb                0x47f0            0x8           8   
.text.__pic32c_data_ini     0x47f8            0x8           8   
.rodata                     0x4800            0x7           7  Read-only const 
.text.__dummy_fmt4          0x4808            0x4           4   
.text                       0x480c            0x4           4  App's exec code 
      Total ROM used  :      0x4803       18435  7.0% of 0x40000
        --------------------------------------------------------------------------
         Total Program Memory used  :      0x4803       18435  7.0% of 0x40000
        --------------------------------------------------------------------------


RAM Data-Memory Usage
section                    address  length [bytes]      (dec)  Description
-------                 ----------  -------------------------  -----------
.bss                    0x20000000           0x14          20  Uninitialized data 
.bss.qtlib_key_data_set 0x20000014           0x78         120   
.bss.m_buffer           0x2000008c           0x64         100   
.bss                    0x200000f0           0x8e         142  Uninitialized data 
.bss                    0x2000017e            0x2           2  Uninitialized data 
.bss.noise_filter_buffe 0x20000180           0x3c          60   
.bss.ptc_qtlib_node_sta 0x200001bc           0x3c          60   
.bss.uart_runtime_data  0x200001f8           0x39          57   
.bss.initialized.6842   0x20000231            0x1           1   
.bss.previousSurfaceSta 0x20000232            0x1           1   
.bss.writeback_req      0x20000233            0x1           1   
.bss.sercom4USARTObj    0x20000234           0x30          48   
.bss                    0x20000264           0x44          68  Uninitialized data 
.bss.qtm_surface_contac 0x200002a8           0x18          24   
.bss.read_buffer        0x200002c0           0x14          20   
.bss.touchRaw           0x200002d4           0x14          20   
.bss.touchRef           0x200002e8           0x14          20   
.bss.touch_acq_signals_ 0x200002fc           0x14          20   
.bss                    0x20000310           0x14          20  Uninitialized data 
.bss.rtcObj             0x20000324            0xc          12   
.bss.touchDelta         0x20000330            0xa          10   
.bss.read_buf_write_ptr 0x2000033a            0x1           1   
.bss.uart_new_data_avai 0x2000033b            0x1           1   
.bss.qtlib_key_grp_data 0x2000033c            0x8           8   
.bss.uart_command_info  0x20000344            0x6           6   
.bss.uart_tx_in_progres 0x2000034a            0x1           1   
.bss.uart_tx_len        0x2000034b            0x1           1   
.bss.touchRam           0x2000034c            0x6           6   
.bss.write_buf_write_pt 0x20000352            0x1           1   
.bss.frameCount.6843    0x20000353            0x1           1   
.bss.m_ix               0x20000354            0x4           4   
.bss.m_len              0x20000358            0x4           4   
.bss.usart_ptr          0x2000035c            0x4           4   
.bss.rtc_context        0x20000360            0x4           4   
.bss                    0x20000364            0xc          12  Uninitialized data 
.bss.qtm_surface_cs_dat 0x20000370            0x1           1   
.bss.interrupt_cnt      0x20000371            0x1           1   
.bss.measurement_done_t 0x20000372            0x1           1   
.bss.module_error_code  0x20000373            0x1           1   
.bss.qtm_gestures_2d_da 0x20000374            0x3           3   
.bss.read_buf_read_ptr  0x20000377            0x1           1   
.bss.m_gesture          0x20000378            0x3           3   
.bss.time_to_measure_to 0x2000037b            0x1           1   
.bss.touch_gesture_time 0x2000037c            0x1           1   
.bss.touch_postprocess_ 0x2000037d            0x1           1   
.data                   0x2000037e            0x2           2  Initialized data 
.data.ptc_seq_node_cfg1 0x20000380           0x78         120   
.data.qtm_gestures_2d_c 0x200003f8           0x28          40   
.data.qtlib_key_configs 0x20000420           0x1e          30   
.data.uart_send_ges_dat 0x2000043e            0x1           1   
.data                   0x2000043f            0x1           1  Initialized data 
.data.qtlib_key_set1    0x20000440           0x10          16   
.data.qtm_surface_cs_co 0x20000450           0x10          16   
.data.gestureCfgRam     0x20000460            0xe          14   
.data.qtlib_acq_set1    0x20000470            0xc          12   
.data.qtm_freq_hop_conf 0x2000047c            0xc          12   
.data.qtm_freq_hop_data 0x20000488            0xc          12   
.data.qtm_surface_cs_co 0x20000494            0xc          12   
.data.cfgRam            0x200004a0            0xa          10   
.data.qtlib_key_grp_con 0x200004ac            0xa          10   
.data.coreRam           0x200004b8            0x8           8   
.data.qtm_freq_hop_cont 0x200004c0            0x8           8   
.data.qtm_gestures_2d_c 0x200004c8            0x8           8   
.data.ptc_qtlib_acq_gen 0x200004d0            0x6           6   
.data.freq_hop_delay_se 0x200004d8            0x3           3   
         Total RAM used  :       0x4d3        1235  3.8% of 0x8000
        --------------------------------------------------------------------------
            Total Data Memory used  :       0x4d3        1235  3.8% of 0x8000
        --------------------------------------------------------------------------


Dynamic Data-Memory Reservation
section                    address  length [bytes]      (dec)  Description
-------                 ----------  -------------------------  -----------
heap                    0x200004e0          0x200         512  Reserved for heap 
stack                   0x200006f8         0x78f8       30968  Reserved for stack 

        --------------------------------------------------------------------------

Discarded input sections

 .text          0x00000000        0x0 c:/program files/microchip/xc32/v4.21/bin/bin/../../lib/gcc/pic32c/8.3.1/thumb/v6-m/nofp/crti.o
 .data          0x00000000        0x0 c:/program files/microchip/xc32/v4.21/bin/bin/../../lib/gcc/pic32c/8.3.1/thumb/v6-m/nofp/crti.o
 .bss           0x00000000        0x0 c:/program files/microchip/xc32/v4.21/bin/bin/../../lib/gcc/pic32c/8.3.1/thumb/v6-m/nofp/crti.o
 .xc_stack_usage.hdr
                0x00000000        0xe c:/program files/microchip/xc32/v4.21/bin/bin/../../lib/gcc/pic32c/8.3.1/thumb/v6-m/nofp/crti.o
 .xc_stack_usage
                0x00000000       0x26 c:/program files/microchip/xc32/v4.21/bin/bin/../../lib/gcc/pic32c/8.3.1/thumb/v6-m/nofp/crti.o
 .data          0x00000000        0x4 c:/program files/microchip/xc32/v4.21/bin/bin/../../lib/gcc/pic32c/8.3.1/thumb/v6-m/nofp/crtbegin.o
 .xc_stack_usage
                0x00000000       0x3c c:/program files/microchip/xc32/v4.21/bin/bin/../../lib/gcc/pic32c/8.3.1/thumb/v6-m/nofp/crtbegin.o
 .xc_stack_usage.hdr
                0x00000000        0xe c:/program files/microchip/xc32/v4.21/bin/bin/../../lib/gcc/pic32c/8.3.1/thumb/v6-m/nofp/crtbegin.o
 .text          0x00000000        0x0 build/default/production/_ext/1984496892/plib_clock.o
 .data          0x00000000        0x0 build/default/production/_ext/1984496892/plib_clock.o
 .bss           0x00000000        0x0 build/default/production/_ext/1984496892/plib_clock.o
 .text          0x00000000        0x0 build/default/production/_ext/1986646378/plib_evsys.o
 .data          0x00000000        0x0 build/default/production/_ext/1986646378/plib_evsys.o
 .bss           0x00000000        0x0 build/default/production/_ext/1986646378/plib_evsys.o
 .text.EVSYS_GeneratorEnable
                0x00000000       0x18 build/default/production/_ext/1986646378/plib_evsys.o
 .text.EVSYS_GeneratorDisable
                0x00000000       0x14 build/default/production/_ext/1986646378/plib_evsys.o
 .text.EVSYS_UserEnable
                0x00000000       0x12 build/default/production/_ext/1986646378/plib_evsys.o
 .text.EVSYS_UserDisable
                0x00000000        0xe build/default/production/_ext/1986646378/plib_evsys.o
 .text          0x00000000        0x0 build/default/production/_ext/1865468468/plib_nvic.o
 .data          0x00000000        0x0 build/default/production/_ext/1865468468/plib_nvic.o
 .bss           0x00000000        0x0 build/default/production/_ext/1865468468/plib_nvic.o
 .text.NVIC_INT_Enable
                0x00000000        0x8 build/default/production/_ext/1865468468/plib_nvic.o
 .text.NVIC_INT_Disable
                0x00000000       0x12 build/default/production/_ext/1865468468/plib_nvic.o
 .text.NVIC_INT_Restore
                0x00000000       0x14 build/default/production/_ext/1865468468/plib_nvic.o
 .text          0x00000000        0x0 build/default/production/_ext/1593096446/plib_nvmctrl.o
 .data          0x00000000        0x0 build/default/production/_ext/1593096446/plib_nvmctrl.o
 .bss           0x00000000        0x0 build/default/production/_ext/1593096446/plib_nvmctrl.o
 .text.NVMCTRL_CacheInvalidate
                0x00000000       0x10 build/default/production/_ext/1593096446/plib_nvmctrl.o
 .text.NVMCTRL_RWWEEPROM_Read
                0x00000000       0x10 build/default/production/_ext/1593096446/plib_nvmctrl.o
 .text.NVMCTRL_RWWEEPROM_PageWrite
                0x00000000       0x28 build/default/production/_ext/1593096446/plib_nvmctrl.o
 .text.NVMCTRL_RWWEEPROM_RowErase
                0x00000000       0x18 build/default/production/_ext/1593096446/plib_nvmctrl.o
 .text.NVMCTRL_Read
                0x00000000       0x10 build/default/production/_ext/1593096446/plib_nvmctrl.o
 .text.NVMCTRL_PageBufferWrite
                0x00000000       0x14 build/default/production/_ext/1593096446/plib_nvmctrl.o
 .text.NVMCTRL_PageBufferCommit
                0x00000000       0x30 build/default/production/_ext/1593096446/plib_nvmctrl.o
 .text.NVMCTRL_PageWrite
                0x00000000       0x28 build/default/production/_ext/1593096446/plib_nvmctrl.o
 .text.NVMCTRL_RowErase
                0x00000000       0x18 build/default/production/_ext/1593096446/plib_nvmctrl.o
 .text.NVMCTRL_USER_ROW_PageWrite
                0x00000000       0x38 build/default/production/_ext/1593096446/plib_nvmctrl.o
 .text.NVMCTRL_USER_ROW_RowErase
                0x00000000       0x2c build/default/production/_ext/1593096446/plib_nvmctrl.o
 .text.NVMCTRL_ErrorGet
                0x00000000       0x18 build/default/production/_ext/1593096446/plib_nvmctrl.o
 .text.NVMCTRL_IsBusy
                0x00000000       0x14 build/default/production/_ext/1593096446/plib_nvmctrl.o
 .text.NVMCTRL_RegionLock
                0x00000000       0x14 build/default/production/_ext/1593096446/plib_nvmctrl.o
 .text.NVMCTRL_RegionUnlock
                0x00000000       0x14 build/default/production/_ext/1593096446/plib_nvmctrl.o
 .text.NVMCTRL_SecurityBitSet
                0x00000000       0x10 build/default/production/_ext/1593096446/plib_nvmctrl.o
 .text          0x00000000        0x0 build/default/production/_ext/1865521619/plib_port.o
 .data          0x00000000        0x0 build/default/production/_ext/1865521619/plib_port.o
 .bss           0x00000000        0x0 build/default/production/_ext/1865521619/plib_port.o
 .text.PORT_GroupRead
                0x00000000        0x4 build/default/production/_ext/1865521619/plib_port.o
 .text.PORT_GroupWrite
                0x00000000        0xc build/default/production/_ext/1865521619/plib_port.o
 .text.PORT_GroupLatchRead
                0x00000000        0x4 build/default/production/_ext/1865521619/plib_port.o
 .text.PORT_GroupSet
                0x00000000        0x4 build/default/production/_ext/1865521619/plib_port.o
 .text.PORT_GroupClear
                0x00000000        0x4 build/default/production/_ext/1865521619/plib_port.o
 .text.PORT_GroupToggle
                0x00000000        0x4 build/default/production/_ext/1865521619/plib_port.o
 .text.PORT_GroupInputEnable
                0x00000000        0x4 build/default/production/_ext/1865521619/plib_port.o
 .text.PORT_GroupOutputEnable
                0x00000000        0x4 build/default/production/_ext/1865521619/plib_port.o
 .text.PORT_PinPeripheralFunctionConfig
                0x00000000       0x46 build/default/production/_ext/1865521619/plib_port.o
 .text.PORT_PinGPIOConfig
                0x00000000       0x1e build/default/production/_ext/1865521619/plib_port.o
 .text          0x00000000        0x0 build/default/production/_ext/60180175/plib_rtc_timer.o
 .data          0x00000000        0x0 build/default/production/_ext/60180175/plib_rtc_timer.o
 .bss           0x00000000        0x0 build/default/production/_ext/60180175/plib_rtc_timer.o
 .text.RTC_Timer32CountSyncEnable
                0x00000000       0x1c build/default/production/_ext/60180175/plib_rtc_timer.o
 .text.RTC_Timer32CountSyncDisable
                0x00000000       0x1c build/default/production/_ext/60180175/plib_rtc_timer.o
 .text.RTC_Timer32CounterGet
                0x00000000       0x34 build/default/production/_ext/60180175/plib_rtc_timer.o
 .text.RTC_Timer32PeriodGet
                0x00000000        0x6 build/default/production/_ext/60180175/plib_rtc_timer.o
 .text.RTC_Timer32FrequencyGet
                0x00000000        0x6 build/default/production/_ext/60180175/plib_rtc_timer.o
 .text.RTC_Timer32InterruptEnable
                0x00000000        0xc build/default/production/_ext/60180175/plib_rtc_timer.o
 .text.RTC_Timer32InterruptDisable
                0x00000000        0xc build/default/production/_ext/60180175/plib_rtc_timer.o
 .text          0x00000000        0x0 build/default/production/_ext/504274921/plib_sercom4_usart.o
 .data          0x00000000        0x0 build/default/production/_ext/504274921/plib_sercom4_usart.o
 .bss           0x00000000        0x0 build/default/production/_ext/504274921/plib_sercom4_usart.o
 .text.SERCOM4_USART_FrequencyGet
                0x00000000        0x8 build/default/production/_ext/504274921/plib_sercom4_usart.o
 .text.SERCOM4_USART_SerialSetup
                0x00000000      0x138 build/default/production/_ext/504274921/plib_sercom4_usart.o
 .text.SERCOM4_USART_ErrorGet
                0x00000000       0x10 build/default/production/_ext/504274921/plib_sercom4_usart.o
 .text.SERCOM4_USART_TransmitterEnable
                0x00000000       0x18 build/default/production/_ext/504274921/plib_sercom4_usart.o
 .text.SERCOM4_USART_TransmitterDisable
                0x00000000       0x1c build/default/production/_ext/504274921/plib_sercom4_usart.o
 .text.SERCOM4_USART_WriteIsBusy
                0x00000000        0xc build/default/production/_ext/504274921/plib_sercom4_usart.o
 .text.SERCOM4_USART_WriteCountGet
                0x00000000        0xc build/default/production/_ext/504274921/plib_sercom4_usart.o
 .text.SERCOM4_USART_TransmitComplete
                0x00000000       0x10 build/default/production/_ext/504274921/plib_sercom4_usart.o
 .text.SERCOM4_USART_ReceiverEnable
                0x00000000       0x18 build/default/production/_ext/504274921/plib_sercom4_usart.o
 .text.SERCOM4_USART_ReceiverDisable
                0x00000000       0x1c build/default/production/_ext/504274921/plib_sercom4_usart.o
 .text.SERCOM4_USART_ReadIsBusy
                0x00000000       0x10 build/default/production/_ext/504274921/plib_sercom4_usart.o
 .text.SERCOM4_USART_ReadCountGet
                0x00000000        0xc build/default/production/_ext/504274921/plib_sercom4_usart.o
 .text.SERCOM4_USART_ReadAbort
                0x00000000       0x28 build/default/production/_ext/504274921/plib_sercom4_usart.o
 .text          0x00000000        0x0 build/default/production/_ext/163028504/xc32_monitor.o
 .data          0x00000000        0x0 build/default/production/_ext/163028504/xc32_monitor.o
 .bss           0x00000000        0x0 build/default/production/_ext/163028504/xc32_monitor.o
 .text.read     0x00000000        0x6 build/default/production/_ext/163028504/xc32_monitor.o
 .text.write    0x00000000        0x6 build/default/production/_ext/163028504/xc32_monitor.o
 .debug_info    0x00000000      0x317 build/default/production/_ext/163028504/xc32_monitor.o
 .debug_abbrev  0x00000000       0x96 build/default/production/_ext/163028504/xc32_monitor.o
 .debug_loc     0x00000000       0x4a build/default/production/_ext/163028504/xc32_monitor.o
 .debug_aranges
                0x00000000       0x28 build/default/production/_ext/163028504/xc32_monitor.o
 .debug_ranges  0x00000000       0x18 build/default/production/_ext/163028504/xc32_monitor.o
 .debug_line    0x00000000       0xce build/default/production/_ext/163028504/xc32_monitor.o
 .debug_str     0x00000000        0x0 build/default/production/_ext/163028504/xc32_monitor.o
 .comment       0x00000000       0x2c build/default/production/_ext/163028504/xc32_monitor.o
 .debug_frame   0x00000000       0x30 build/default/production/_ext/163028504/xc32_monitor.o
 .ARM.attributes
                0x00000000       0x2c build/default/production/_ext/163028504/xc32_monitor.o
 .text          0x00000000        0x0 build/default/production/_ext/1662611032/kronocommuart_sam.o
 .data          0x00000000        0x0 build/default/production/_ext/1662611032/kronocommuart_sam.o
 .bss           0x00000000        0x0 build/default/production/_ext/1662611032/kronocommuart_sam.o
 .bss.peng      0x00000000        0x4 build/default/production/_ext/1662611032/kronocommuart_sam.o
 .bss.transmit_completed
                0x00000000        0x1 build/default/production/_ext/1662611032/kronocommuart_sam.o
 .bss.write_buf_read_ptr
                0x00000000        0x1 build/default/production/_ext/1662611032/kronocommuart_sam.o
 .bss.write_buffer
                0x00000000       0x64 build/default/production/_ext/1662611032/kronocommuart_sam.o
 .text          0x00000000        0x0 build/default/production/_ext/1662611032/kronocommadaptor.o
 .data          0x00000000        0x0 build/default/production/_ext/1662611032/kronocommadaptor.o
 .bss           0x00000000        0x0 build/default/production/_ext/1662611032/kronocommadaptor.o
 .text.isPowerOfTwo
                0x00000000       0x14 build/default/production/_ext/1662611032/kronocommadaptor.o
 .text.InitIRQPin
                0x00000000        0x2 build/default/production/_ext/1662611032/kronocommadaptor.o
 .text.SetIRQPin
                0x00000000        0x2 build/default/production/_ext/1662611032/kronocommadaptor.o
 .text.ClearIRQPin
                0x00000000        0x2 build/default/production/_ext/1662611032/kronocommadaptor.o
 .text          0x00000000        0x0 build/default/production/_ext/162237794/touch.o
 .data          0x00000000        0x0 build/default/production/_ext/162237794/touch.o
 .bss           0x00000000        0x0 build/default/production/_ext/162237794/touch.o
 .text.get_sensor_node_signal
                0x00000000       0x14 build/default/production/_ext/162237794/touch.o
 .text.update_sensor_node_signal
                0x00000000       0x14 build/default/production/_ext/162237794/touch.o
 .text.get_sensor_node_reference
                0x00000000       0x14 build/default/production/_ext/162237794/touch.o
 .text.update_sensor_node_reference
                0x00000000       0x14 build/default/production/_ext/162237794/touch.o
 .text.get_sensor_cc_val
                0x00000000       0x14 build/default/production/_ext/162237794/touch.o
 .text.update_sensor_cc_val
                0x00000000       0x14 build/default/production/_ext/162237794/touch.o
 .text.get_sensor_state
                0x00000000       0x14 build/default/production/_ext/162237794/touch.o
 .text.update_sensor_state
                0x00000000       0x14 build/default/production/_ext/162237794/touch.o
 .text.calibrate_node
                0x00000000       0x2c build/default/production/_ext/162237794/touch.o
 .text.get_surface_status
                0x00000000        0xc build/default/production/_ext/162237794/touch.o
 .text.get_surface_position
                0x00000000       0x28 build/default/production/_ext/162237794/touch.o
 .text          0x00000000        0x0 build/default/production/_ext/162237794/touch_example.o
 .data          0x00000000        0x0 build/default/production/_ext/162237794/touch_example.o
 .bss           0x00000000        0x0 build/default/production/_ext/162237794/touch_example.o
 .text.touch_mainloop_example
                0x00000000       0x1c build/default/production/_ext/162237794/touch_example.o
 .text.touch_status_display
                0x00000000       0x40 build/default/production/_ext/162237794/touch_example.o
 .debug_info    0x00000000      0x477 build/default/production/_ext/162237794/touch_example.o
 .debug_abbrev  0x00000000       0xbd build/default/production/_ext/162237794/touch_example.o
 .debug_loc     0x00000000       0x56 build/default/production/_ext/162237794/touch_example.o
 .debug_aranges
                0x00000000       0x28 build/default/production/_ext/162237794/touch_example.o
 .debug_ranges  0x00000000       0x18 build/default/production/_ext/162237794/touch_example.o
 .debug_line    0x00000000      0x166 build/default/production/_ext/162237794/touch_example.o
 .debug_str     0x00000000       0x1f build/default/production/_ext/162237794/touch_example.o
 .comment       0x00000000       0x2c build/default/production/_ext/162237794/touch_example.o
 .debug_frame   0x00000000       0x40 build/default/production/_ext/162237794/touch_example.o
 .ARM.attributes
                0x00000000       0x2c build/default/production/_ext/162237794/touch_example.o
 .text          0x00000000        0x0 build/default/production/_ext/1171490990/initialization.o
 .data          0x00000000        0x0 build/default/production/_ext/1171490990/initialization.o
 .bss           0x00000000        0x0 build/default/production/_ext/1171490990/initialization.o
 .text          0x00000000        0x0 build/default/production/_ext/1171490990/interrupts.o
 .data          0x00000000        0x0 build/default/production/_ext/1171490990/interrupts.o
 .bss           0x00000000        0x0 build/default/production/_ext/1171490990/interrupts.o
 .text          0x00000000        0x0 build/default/production/_ext/1171490990/exceptions.o
 .data          0x00000000        0x0 build/default/production/_ext/1171490990/exceptions.o
 .bss           0x00000000        0x0 build/default/production/_ext/1171490990/exceptions.o
 .text          0x00000000        0x0 build/default/production/_ext/1171490990/startup_xc32.o
 .data          0x00000000        0x0 build/default/production/_ext/1171490990/startup_xc32.o
 .bss           0x00000000        0x0 build/default/production/_ext/1171490990/startup_xc32.o
 .text          0x00000000        0x0 build/default/production/_ext/1171490990/libc_syscalls.o
 .data          0x00000000        0x0 build/default/production/_ext/1171490990/libc_syscalls.o
 .bss           0x00000000        0x0 build/default/production/_ext/1171490990/libc_syscalls.o
 .text._exit    0x00000000        0x2 build/default/production/_ext/1171490990/libc_syscalls.o
 .debug_info    0x00000000      0x2fe build/default/production/_ext/1171490990/libc_syscalls.o
 .debug_abbrev  0x00000000       0x52 build/default/production/_ext/1171490990/libc_syscalls.o
 .debug_loc     0x00000000       0x15 build/default/production/_ext/1171490990/libc_syscalls.o
 .debug_aranges
                0x00000000       0x20 build/default/production/_ext/1171490990/libc_syscalls.o
 .debug_ranges  0x00000000       0x10 build/default/production/_ext/1171490990/libc_syscalls.o
 .debug_line    0x00000000       0x5b build/default/production/_ext/1171490990/libc_syscalls.o
 .debug_str     0x00000000        0x0 build/default/production/_ext/1171490990/libc_syscalls.o
 .comment       0x00000000       0x2c build/default/production/_ext/1171490990/libc_syscalls.o
 .debug_frame   0x00000000       0x20 build/default/production/_ext/1171490990/libc_syscalls.o
 .ARM.attributes
                0x00000000       0x2c build/default/production/_ext/1171490990/libc_syscalls.o
 .text          0x00000000        0x0 build/default/production/_ext/1360937237/main.o
 .data          0x00000000        0x0 build/default/production/_ext/1360937237/main.o
 .bss           0x00000000        0x0 build/default/production/_ext/1360937237/main.o
 .text          0x00000000        0x0 ..\src\config\default\touch\lib\qtm_acq_samc21_0x0020.X.a(sam_acq_x_samc21.o)
 .text.qtm_drivenshield_setup
                0x00000000       0x14 ..\src\config\default\touch\lib\qtm_acq_samc21_0x0020.X.a(sam_acq_x_samc21.o)
 .text.qtm_drivenshield_register_start_callback
                0x00000000       0x14 ..\src\config\default\touch\lib\qtm_acq_samc21_0x0020.X.a(sam_acq_x_samc21.o)
 .text.qtm_drivenshield_deregister_start_callback
                0x00000000       0x14 ..\src\config\default\touch\lib\qtm_acq_samc21_0x0020.X.a(sam_acq_x_samc21.o)
 .text.qtm_autoscan_sensor_node
                0x00000000      0x140 ..\src\config\default\touch\lib\qtm_acq_samc21_0x0020.X.a(sam_acq_x_samc21.o)
 .text.qtm_autoscan_node_cancel
                0x00000000       0x30 ..\src\config\default\touch\lib\qtm_acq_samc21_0x0020.X.a(sam_acq_x_samc21.o)
 .text.qtm_ptc_de_init
                0x00000000       0x20 ..\src\config\default\touch\lib\qtm_acq_samc21_0x0020.X.a(sam_acq_x_samc21.o)
 .text.qtm_samc21_acq_module_get_id
                0x00000000        0x4 ..\src\config\default\touch\lib\qtm_acq_samc21_0x0020.X.a(sam_acq_x_samc21.o)
 .text.qtm_samc21_acq_module_get_version
                0x00000000        0x4 ..\src\config\default\touch\lib\qtm_acq_samc21_0x0020.X.a(sam_acq_x_samc21.o)
 .text          0x00000000        0x0 ..\src\config\default\touch\lib\qtm_touch_key_cm0p_0x0002.X.a(sam_touch_key_x_cm0p.o)
 .data          0x00000000        0x0 ..\src\config\default\touch\lib\qtm_touch_key_cm0p_0x0002.X.a(sam_touch_key_x_cm0p.o)
 .text.qtm_key_suspend
                0x00000000       0x2c ..\src\config\default\touch\lib\qtm_touch_key_cm0p_0x0002.X.a(sam_touch_key_x_cm0p.o)
 .text.qtm_key_resume
                0x00000000       0x2c ..\src\config\default\touch\lib\qtm_touch_key_cm0p_0x0002.X.a(sam_touch_key_x_cm0p.o)
 .text.qtm_get_touch_keys_module_id
                0x00000000        0x4 ..\src\config\default\touch\lib\qtm_touch_key_cm0p_0x0002.X.a(sam_touch_key_x_cm0p.o)
 .text.qtm_get_touch_keys_module_ver
                0x00000000        0x4 ..\src\config\default\touch\lib\qtm_touch_key_cm0p_0x0002.X.a(sam_touch_key_x_cm0p.o)
 .text          0x00000000        0x0 ..\src\config\default\touch\lib\qtm_freq_hop_cm0p_0x0006.X.a(sam_freq_hop_x_cm0p.o)
 .data          0x00000000        0x0 ..\src\config\default\touch\lib\qtm_freq_hop_cm0p_0x0006.X.a(sam_freq_hop_x_cm0p.o)
 .bss           0x00000000        0x0 ..\src\config\default\touch\lib\qtm_freq_hop_cm0p_0x0006.X.a(sam_freq_hop_x_cm0p.o)
 .text.qtm_get_freq_hop_module_id
                0x00000000        0x4 ..\src\config\default\touch\lib\qtm_freq_hop_cm0p_0x0006.X.a(sam_freq_hop_x_cm0p.o)
 .text.qtm_get_freq_hop_module_ver
                0x00000000        0x4 ..\src\config\default\touch\lib\qtm_freq_hop_cm0p_0x0006.X.a(sam_freq_hop_x_cm0p.o)
 .text          0x00000000        0x0 ..\src\config\default\touch\lib\qtm_surface_cs_2t_cm0p_0x0025.X.a(sam_surface_cs_2t_x_cm0p.o)
 .data          0x00000000        0x0 ..\src\config\default\touch\lib\qtm_surface_cs_2t_cm0p_0x0025.X.a(sam_surface_cs_2t_x_cm0p.o)
 .text.qtm_get_surface_cs2t_module_id
                0x00000000        0x4 ..\src\config\default\touch\lib\qtm_surface_cs_2t_cm0p_0x0025.X.a(sam_surface_cs_2t_x_cm0p.o)
 .text.qtm_get_surface_cs2t_module_ver
                0x00000000        0x4 ..\src\config\default\touch\lib\qtm_surface_cs_2t_cm0p_0x0025.X.a(sam_surface_cs_2t_x_cm0p.o)
 .text          0x00000000        0x0 ..\src\config\default\touch\lib\qtm_surface_gestures_cm0p_0x0023.X.a(sam_surface_gestures_x_cm0p.o)
 .text.Gestures_QueryValue
                0x00000000        0xc ..\src\config\default\touch\lib\qtm_surface_gestures_cm0p_0x0023.X.a(sam_surface_gestures_x_cm0p.o)
 .text.Gestures_QueryDiag
                0x00000000        0xc ..\src\config\default\touch\lib\qtm_surface_gestures_cm0p_0x0023.X.a(sam_surface_gestures_x_cm0p.o)
 .text.qtm_get_gesture_2d_module_id
                0x00000000        0x4 ..\src\config\default\touch\lib\qtm_surface_gestures_cm0p_0x0023.X.a(sam_surface_gestures_x_cm0p.o)
 .text.qtm_get_gesture_2d_module_ver
                0x00000000        0x4 ..\src\config\default\touch\lib\qtm_surface_gestures_cm0p_0x0023.X.a(sam_surface_gestures_x_cm0p.o)
 .text          0x00000000        0x0 c:/program files/microchip/xc32/v4.21/bin/bin/../../lib/gcc/pic32c/8.3.1/../../../../pic32c/lib/thumb/v6-m/nofp\libpic32c.a(data_init_wrapper.o)
 .data          0x00000000        0x0 c:/program files/microchip/xc32/v4.21/bin/bin/../../lib/gcc/pic32c/8.3.1/../../../../pic32c/lib/thumb/v6-m/nofp\libpic32c.a(data_init_wrapper.o)
 .bss           0x00000000        0x0 c:/program files/microchip/xc32/v4.21/bin/bin/../../lib/gcc/pic32c/8.3.1/../../../../pic32c/lib/thumb/v6-m/nofp\libpic32c.a(data_init_wrapper.o)
 .xc_stack_usage
                0x00000000       0x2a c:/program files/microchip/xc32/v4.21/bin/bin/../../lib/gcc/pic32c/8.3.1/../../../../pic32c/lib/thumb/v6-m/nofp\libpic32c.a(data_init_wrapper.o)
 .xc_stack_usage.hdr
                0x00000000        0xe c:/program files/microchip/xc32/v4.21/bin/bin/../../lib/gcc/pic32c/8.3.1/../../../../pic32c/lib/thumb/v6-m/nofp\libpic32c.a(data_init_wrapper.o)
 .text          0x00000000        0x0 c:/program files/microchip/xc32/v4.21/bin/bin/../../lib/gcc/pic32c/8.3.1/../../../../pic32c/lib/thumb/v6-m/nofp\libpic32c.a(data_init_0_1.o)
 .data          0x00000000        0x0 c:/program files/microchip/xc32/v4.21/bin/bin/../../lib/gcc/pic32c/8.3.1/../../../../pic32c/lib/thumb/v6-m/nofp\libpic32c.a(data_init_0_1.o)
 .xc_stack_usage
                0x00000000       0x2f c:/program files/microchip/xc32/v4.21/bin/bin/../../lib/gcc/pic32c/8.3.1/../../../../pic32c/lib/thumb/v6-m/nofp\libpic32c.a(data_init_0_1.o)
 .xc_stack_usage.hdr
                0x00000000        0xe c:/program files/microchip/xc32/v4.21/bin/bin/../../lib/gcc/pic32c/8.3.1/../../../../pic32c/lib/thumb/v6-m/nofp\libpic32c.a(data_init_0_1.o)
 .text          0x00000000        0x0 c:/program files/microchip/xc32/v4.21/bin/bin/../../lib/gcc/pic32c/8.3.1/../../../../pic32c/lib/thumb/v6-m/nofp\libc-musl.a(__libc_start_main.o)
 .data          0x00000000        0x0 c:/program files/microchip/xc32/v4.21/bin/bin/../../lib/gcc/pic32c/8.3.1/../../../../pic32c/lib/thumb/v6-m/nofp\libc-musl.a(__libc_start_main.o)
 .bss           0x00000000        0x0 c:/program files/microchip/xc32/v4.21/bin/bin/../../lib/gcc/pic32c/8.3.1/../../../../pic32c/lib/thumb/v6-m/nofp\libc-musl.a(__libc_start_main.o)
 .xc_stack_usage
                0x00000000       0x34 c:/program files/microchip/xc32/v4.21/bin/bin/../../lib/gcc/pic32c/8.3.1/../../../../pic32c/lib/thumb/v6-m/nofp\libc-musl.a(__libc_start_main.o)
 .xc_stack_usage.hdr
                0x00000000        0xe c:/program files/microchip/xc32/v4.21/bin/bin/../../lib/gcc/pic32c/8.3.1/../../../../pic32c/lib/thumb/v6-m/nofp\libc-musl.a(__libc_start_main.o)
 .text          0x00000000        0x0 c:/program files/microchip/xc32/v4.21/bin/bin/../../lib/gcc/pic32c/8.3.1/../../../../pic32c/lib/thumb/v6-m/nofp\libc-musl.a(libc.o)
 .data          0x00000000        0x0 c:/program files/microchip/xc32/v4.21/bin/bin/../../lib/gcc/pic32c/8.3.1/../../../../pic32c/lib/thumb/v6-m/nofp\libc-musl.a(libc.o)
 .xc_stack_usage.hdr
                0x00000000        0xe c:/program files/microchip/xc32/v4.21/bin/bin/../../lib/gcc/pic32c/8.3.1/../../../../pic32c/lib/thumb/v6-m/nofp\libc-musl.a(libc.o)
 .text          0x00000000        0x0 c:/program files/microchip/xc32/v4.21/bin/bin/../../lib/gcc/pic32c/8.3.1/../../../../pic32c/lib/thumb/v6-m/nofp\libc-musl.a(__sio_sprintf_doux.o)
 .data          0x00000000        0x0 c:/program files/microchip/xc32/v4.21/bin/bin/../../lib/gcc/pic32c/8.3.1/../../../../pic32c/lib/thumb/v6-m/nofp\libc-musl.a(__sio_sprintf_doux.o)
 .bss           0x00000000        0x0 c:/program files/microchip/xc32/v4.21/bin/bin/../../lib/gcc/pic32c/8.3.1/../../../../pic32c/lib/thumb/v6-m/nofp\libc-musl.a(__sio_sprintf_doux.o)
 .xc_stack_usage
                0x00000000       0x3c c:/program files/microchip/xc32/v4.21/bin/bin/../../lib/gcc/pic32c/8.3.1/../../../../pic32c/lib/thumb/v6-m/nofp\libc-musl.a(__sio_sprintf_doux.o)
 .text.__sio_sprintf_doux
                0x00000000       0x20 c:/program files/microchip/xc32/v4.21/bin/bin/../../lib/gcc/pic32c/8.3.1/../../../../pic32c/lib/thumb/v6-m/nofp\libc-musl.a(__sio_sprintf_doux.o)
 .xc_stack_usage.hdr
                0x00000000        0xe c:/program files/microchip/xc32/v4.21/bin/bin/../../lib/gcc/pic32c/8.3.1/../../../../pic32c/lib/thumb/v6-m/nofp\libc-musl.a(__sio_sprintf_doux.o)
 .text          0x00000000        0x0 c:/program files/microchip/xc32/v4.21/bin/bin/../../lib/gcc/pic32c/8.3.1/../../../../pic32c/lib/thumb/v6-m/nofp\libc-musl.a(__fmt_d.o)
 .data          0x00000000        0x0 c:/program files/microchip/xc32/v4.21/bin/bin/../../lib/gcc/pic32c/8.3.1/../../../../pic32c/lib/thumb/v6-m/nofp\libc-musl.a(__fmt_d.o)
 .bss           0x00000000        0x0 c:/program files/microchip/xc32/v4.21/bin/bin/../../lib/gcc/pic32c/8.3.1/../../../../pic32c/lib/thumb/v6-m/nofp\libc-musl.a(__fmt_d.o)
 .xc_stack_usage
                0x00000000       0x15 c:/program files/microchip/xc32/v4.21/bin/bin/../../lib/gcc/pic32c/8.3.1/../../../../pic32c/lib/thumb/v6-m/nofp\libc-musl.a(__fmt_d.o)
 .xc_stack_usage.hdr
                0x00000000        0xe c:/program files/microchip/xc32/v4.21/bin/bin/../../lib/gcc/pic32c/8.3.1/../../../../pic32c/lib/thumb/v6-m/nofp\libc-musl.a(__fmt_d.o)
 .text          0x00000000        0x0 c:/program files/microchip/xc32/v4.21/bin/bin/../../lib/gcc/pic32c/8.3.1/../../../../pic32c/lib/thumb/v6-m/nofp\libc-musl.a(__fmt_o.o)
 .data          0x00000000        0x0 c:/program files/microchip/xc32/v4.21/bin/bin/../../lib/gcc/pic32c/8.3.1/../../../../pic32c/lib/thumb/v6-m/nofp\libc-musl.a(__fmt_o.o)
 .bss           0x00000000        0x0 c:/program files/microchip/xc32/v4.21/bin/bin/../../lib/gcc/pic32c/8.3.1/../../../../pic32c/lib/thumb/v6-m/nofp\libc-musl.a(__fmt_o.o)
 .xc_stack_usage
                0x00000000       0x15 c:/program files/microchip/xc32/v4.21/bin/bin/../../lib/gcc/pic32c/8.3.1/../../../../pic32c/lib/thumb/v6-m/nofp\libc-musl.a(__fmt_o.o)
 .xc_stack_usage.hdr
                0x00000000        0xe c:/program files/microchip/xc32/v4.21/bin/bin/../../lib/gcc/pic32c/8.3.1/../../../../pic32c/lib/thumb/v6-m/nofp\libc-musl.a(__fmt_o.o)
 .text          0x00000000        0x0 c:/program files/microchip/xc32/v4.21/bin/bin/../../lib/gcc/pic32c/8.3.1/../../../../pic32c/lib/thumb/v6-m/nofp\libc-musl.a(__fmt_s.o)
 .data          0x00000000        0x0 c:/program files/microchip/xc32/v4.21/bin/bin/../../lib/gcc/pic32c/8.3.1/../../../../pic32c/lib/thumb/v6-m/nofp\libc-musl.a(__fmt_s.o)
 .bss           0x00000000        0x0 c:/program files/microchip/xc32/v4.21/bin/bin/../../lib/gcc/pic32c/8.3.1/../../../../pic32c/lib/thumb/v6-m/nofp\libc-musl.a(__fmt_s.o)
 .xc_stack_usage
                0x00000000       0x15 c:/program files/microchip/xc32/v4.21/bin/bin/../../lib/gcc/pic32c/8.3.1/../../../../pic32c/lib/thumb/v6-m/nofp\libc-musl.a(__fmt_s.o)
 .xc_stack_usage.hdr
                0x00000000        0xe c:/program files/microchip/xc32/v4.21/bin/bin/../../lib/gcc/pic32c/8.3.1/../../../../pic32c/lib/thumb/v6-m/nofp\libc-musl.a(__fmt_s.o)
 .text          0x00000000        0x0 c:/program files/microchip/xc32/v4.21/bin/bin/../../lib/gcc/pic32c/8.3.1/../../../../pic32c/lib/thumb/v6-m/nofp\libc-musl.a(__fmt_u.o)
 .data          0x00000000        0x0 c:/program files/microchip/xc32/v4.21/bin/bin/../../lib/gcc/pic32c/8.3.1/../../../../pic32c/lib/thumb/v6-m/nofp\libc-musl.a(__fmt_u.o)
 .bss           0x00000000        0x0 c:/program files/microchip/xc32/v4.21/bin/bin/../../lib/gcc/pic32c/8.3.1/../../../../pic32c/lib/thumb/v6-m/nofp\libc-musl.a(__fmt_u.o)
 .xc_stack_usage
                0x00000000       0x2a c:/program files/microchip/xc32/v4.21/bin/bin/../../lib/gcc/pic32c/8.3.1/../../../../pic32c/lib/thumb/v6-m/nofp\libc-musl.a(__fmt_u.o)
 .xc_stack_usage.hdr
                0x00000000        0xe c:/program files/microchip/xc32/v4.21/bin/bin/../../lib/gcc/pic32c/8.3.1/../../../../pic32c/lib/thumb/v6-m/nofp\libc-musl.a(__fmt_u.o)
 .text          0x00000000        0x0 c:/program files/microchip/xc32/v4.21/bin/bin/../../lib/gcc/pic32c/8.3.1/../../../../pic32c/lib/thumb/v6-m/nofp\libc-musl.a(__fmt_x.o)
 .data          0x00000000        0x0 c:/program files/microchip/xc32/v4.21/bin/bin/../../lib/gcc/pic32c/8.3.1/../../../../pic32c/lib/thumb/v6-m/nofp\libc-musl.a(__fmt_x.o)
 .bss           0x00000000        0x0 c:/program files/microchip/xc32/v4.21/bin/bin/../../lib/gcc/pic32c/8.3.1/../../../../pic32c/lib/thumb/v6-m/nofp\libc-musl.a(__fmt_x.o)
 .xc_stack_usage
                0x00000000       0x15 c:/program files/microchip/xc32/v4.21/bin/bin/../../lib/gcc/pic32c/8.3.1/../../../../pic32c/lib/thumb/v6-m/nofp\libc-musl.a(__fmt_x.o)
 .xc_stack_usage.hdr
                0x00000000        0xe c:/program files/microchip/xc32/v4.21/bin/bin/../../lib/gcc/pic32c/8.3.1/../../../../pic32c/lib/thumb/v6-m/nofp\libc-musl.a(__fmt_x.o)
 .text          0x00000000        0x0 c:/program files/microchip/xc32/v4.21/bin/bin/../../lib/gcc/pic32c/8.3.1/../../../../pic32c/lib/thumb/v6-m/nofp\libc-musl.a(__pop_int.o)
 .data          0x00000000        0x0 c:/program files/microchip/xc32/v4.21/bin/bin/../../lib/gcc/pic32c/8.3.1/../../../../pic32c/lib/thumb/v6-m/nofp\libc-musl.a(__pop_int.o)
 .bss           0x00000000        0x0 c:/program files/microchip/xc32/v4.21/bin/bin/../../lib/gcc/pic32c/8.3.1/../../../../pic32c/lib/thumb/v6-m/nofp\libc-musl.a(__pop_int.o)
 .xc_stack_usage
                0x00000000       0x17 c:/program files/microchip/xc32/v4.21/bin/bin/../../lib/gcc/pic32c/8.3.1/../../../../pic32c/lib/thumb/v6-m/nofp\libc-musl.a(__pop_int.o)
 .xc_stack_usage.hdr
                0x00000000        0xe c:/program files/microchip/xc32/v4.21/bin/bin/../../lib/gcc/pic32c/8.3.1/../../../../pic32c/lib/thumb/v6-m/nofp\libc-musl.a(__pop_int.o)
 .text          0x00000000        0x0 c:/program files/microchip/xc32/v4.21/bin/bin/../../lib/gcc/pic32c/8.3.1/../../../../pic32c/lib/thumb/v6-m/nofp\libc-musl.a(__pop_ptr.o)
 .data          0x00000000        0x0 c:/program files/microchip/xc32/v4.21/bin/bin/../../lib/gcc/pic32c/8.3.1/../../../../pic32c/lib/thumb/v6-m/nofp\libc-musl.a(__pop_ptr.o)
 .bss           0x00000000        0x0 c:/program files/microchip/xc32/v4.21/bin/bin/../../lib/gcc/pic32c/8.3.1/../../../../pic32c/lib/thumb/v6-m/nofp\libc-musl.a(__pop_ptr.o)
 .xc_stack_usage
                0x00000000       0x17 c:/program files/microchip/xc32/v4.21/bin/bin/../../lib/gcc/pic32c/8.3.1/../../../../pic32c/lib/thumb/v6-m/nofp\libc-musl.a(__pop_ptr.o)
 .xc_stack_usage.hdr
                0x00000000        0xe c:/program files/microchip/xc32/v4.21/bin/bin/../../lib/gcc/pic32c/8.3.1/../../../../pic32c/lib/thumb/v6-m/nofp\libc-musl.a(__pop_ptr.o)
 .text          0x00000000        0x0 c:/program files/microchip/xc32/v4.21/bin/bin/../../lib/gcc/pic32c/8.3.1/../../../../pic32c/lib/thumb/v6-m/nofp\libc-musl.a(__printf_core.o)
 .data          0x00000000        0x0 c:/program files/microchip/xc32/v4.21/bin/bin/../../lib/gcc/pic32c/8.3.1/../../../../pic32c/lib/thumb/v6-m/nofp\libc-musl.a(__printf_core.o)
 .bss           0x00000000        0x0 c:/program files/microchip/xc32/v4.21/bin/bin/../../lib/gcc/pic32c/8.3.1/../../../../pic32c/lib/thumb/v6-m/nofp\libc-musl.a(__printf_core.o)
 .xc_stack_usage
                0x00000000       0xaf c:/program files/microchip/xc32/v4.21/bin/bin/../../lib/gcc/pic32c/8.3.1/../../../../pic32c/lib/thumb/v6-m/nofp\libc-musl.a(__printf_core.o)
 .text.__dummy_fmt3
                0x00000000        0x4 c:/program files/microchip/xc32/v4.21/bin/bin/../../lib/gcc/pic32c/8.3.1/../../../../pic32c/lib/thumb/v6-m/nofp\libc-musl.a(__printf_core.o)
 .text.__dummy_fmts
                0x00000000        0x4 c:/program files/microchip/xc32/v4.21/bin/bin/../../lib/gcc/pic32c/8.3.1/../../../../pic32c/lib/thumb/v6-m/nofp\libc-musl.a(__printf_core.o)
 .xc_stack_usage.hdr
                0x00000000        0xe c:/program files/microchip/xc32/v4.21/bin/bin/../../lib/gcc/pic32c/8.3.1/../../../../pic32c/lib/thumb/v6-m/nofp\libc-musl.a(__printf_core.o)
 .text          0x00000000        0x0 c:/program files/microchip/xc32/v4.21/bin/bin/../../lib/gcc/pic32c/8.3.1/../../../../pic32c/lib/thumb/v6-m/nofp\libc-musl.a(atoi.o)
 .data          0x00000000        0x0 c:/program files/microchip/xc32/v4.21/bin/bin/../../lib/gcc/pic32c/8.3.1/../../../../pic32c/lib/thumb/v6-m/nofp\libc-musl.a(atoi.o)
 .bss           0x00000000        0x0 c:/program files/microchip/xc32/v4.21/bin/bin/../../lib/gcc/pic32c/8.3.1/../../../../pic32c/lib/thumb/v6-m/nofp\libc-musl.a(atoi.o)
 .xc_stack_usage
                0x00000000       0x12 c:/program files/microchip/xc32/v4.21/bin/bin/../../lib/gcc/pic32c/8.3.1/../../../../pic32c/lib/thumb/v6-m/nofp\libc-musl.a(atoi.o)
 .xc_stack_usage.hdr
                0x00000000        0xe c:/program files/microchip/xc32/v4.21/bin/bin/../../lib/gcc/pic32c/8.3.1/../../../../pic32c/lib/thumb/v6-m/nofp\libc-musl.a(atoi.o)
 .text          0x00000000        0x0 c:/program files/microchip/xc32/v4.21/bin/bin/../../lib/gcc/pic32c/8.3.1/../../../../pic32c/lib/thumb/v6-m/nofp\libc-musl.a(memcpy.o)
 .data          0x00000000        0x0 c:/program files/microchip/xc32/v4.21/bin/bin/../../lib/gcc/pic32c/8.3.1/../../../../pic32c/lib/thumb/v6-m/nofp\libc-musl.a(memcpy.o)
 .bss           0x00000000        0x0 c:/program files/microchip/xc32/v4.21/bin/bin/../../lib/gcc/pic32c/8.3.1/../../../../pic32c/lib/thumb/v6-m/nofp\libc-musl.a(memcpy.o)
 .xc_stack_usage
                0x00000000       0x14 c:/program files/microchip/xc32/v4.21/bin/bin/../../lib/gcc/pic32c/8.3.1/../../../../pic32c/lib/thumb/v6-m/nofp\libc-musl.a(memcpy.o)
 .xc_stack_usage.hdr
                0x00000000        0xe c:/program files/microchip/xc32/v4.21/bin/bin/../../lib/gcc/pic32c/8.3.1/../../../../pic32c/lib/thumb/v6-m/nofp\libc-musl.a(memcpy.o)
 .text          0x00000000        0x0 c:/program files/microchip/xc32/v4.21/bin/bin/../../lib/gcc/pic32c/8.3.1/../../../../pic32c/lib/thumb/v6-m/nofp\libc-musl.a(memset.o)
 .data          0x00000000        0x0 c:/program files/microchip/xc32/v4.21/bin/bin/../../lib/gcc/pic32c/8.3.1/../../../../pic32c/lib/thumb/v6-m/nofp\libc-musl.a(memset.o)
 .bss           0x00000000        0x0 c:/program files/microchip/xc32/v4.21/bin/bin/../../lib/gcc/pic32c/8.3.1/../../../../pic32c/lib/thumb/v6-m/nofp\libc-musl.a(memset.o)
 .xc_stack_usage
                0x00000000       0x14 c:/program files/microchip/xc32/v4.21/bin/bin/../../lib/gcc/pic32c/8.3.1/../../../../pic32c/lib/thumb/v6-m/nofp\libc-musl.a(memset.o)
 .xc_stack_usage.hdr
                0x00000000        0xe c:/program files/microchip/xc32/v4.21/bin/bin/../../lib/gcc/pic32c/8.3.1/../../../../pic32c/lib/thumb/v6-m/nofp\libc-musl.a(memset.o)
 .text          0x00000000        0x0 c:/program files/microchip/xc32/v4.21/bin/bin/../../lib/gcc/pic32c/8.3.1/../../../../pic32c/lib/thumb/v6-m/nofp\libc-musl.a(strlen.o)
 .data          0x00000000        0x0 c:/program files/microchip/xc32/v4.21/bin/bin/../../lib/gcc/pic32c/8.3.1/../../../../pic32c/lib/thumb/v6-m/nofp\libc-musl.a(strlen.o)
 .bss           0x00000000        0x0 c:/program files/microchip/xc32/v4.21/bin/bin/../../lib/gcc/pic32c/8.3.1/../../../../pic32c/lib/thumb/v6-m/nofp\libc-musl.a(strlen.o)
 .xc_stack_usage
                0x00000000       0x14 c:/program files/microchip/xc32/v4.21/bin/bin/../../lib/gcc/pic32c/8.3.1/../../../../pic32c/lib/thumb/v6-m/nofp\libc-musl.a(strlen.o)
 .xc_stack_usage.hdr
                0x00000000        0xe c:/program files/microchip/xc32/v4.21/bin/bin/../../lib/gcc/pic32c/8.3.1/../../../../pic32c/lib/thumb/v6-m/nofp\libc-musl.a(strlen.o)
 .text          0x00000000        0x0 c:/program files/microchip/xc32/v4.21/bin/bin/../../lib/gcc/pic32c/8.3.1/../../../../pic32c/lib/thumb/v6-m/nofp\libc-musl.a(tolower.o)
 .data          0x00000000        0x0 c:/program files/microchip/xc32/v4.21/bin/bin/../../lib/gcc/pic32c/8.3.1/../../../../pic32c/lib/thumb/v6-m/nofp\libc-musl.a(tolower.o)
 .bss           0x00000000        0x0 c:/program files/microchip/xc32/v4.21/bin/bin/../../lib/gcc/pic32c/8.3.1/../../../../pic32c/lib/thumb/v6-m/nofp\libc-musl.a(tolower.o)
 .xc_stack_usage
                0x00000000       0x2e c:/program files/microchip/xc32/v4.21/bin/bin/../../lib/gcc/pic32c/8.3.1/../../../../pic32c/lib/thumb/v6-m/nofp\libc-musl.a(tolower.o)
 .text.__tolower_l
                0x00000000        0x8 c:/program files/microchip/xc32/v4.21/bin/bin/../../lib/gcc/pic32c/8.3.1/../../../../pic32c/lib/thumb/v6-m/nofp\libc-musl.a(tolower.o)
 .xc_stack_usage.hdr
                0x00000000        0xe c:/program files/microchip/xc32/v4.21/bin/bin/../../lib/gcc/pic32c/8.3.1/../../../../pic32c/lib/thumb/v6-m/nofp\libc-musl.a(tolower.o)
 .text          0x00000000        0x0 c:/program files/microchip/xc32/v4.21/bin/bin/../../lib/gcc/pic32c/8.3.1/../../../../pic32c/lib/thumb/v6-m/nofp\libc-musl.a(toupper.o)
 .data          0x00000000        0x0 c:/program files/microchip/xc32/v4.21/bin/bin/../../lib/gcc/pic32c/8.3.1/../../../../pic32c/lib/thumb/v6-m/nofp\libc-musl.a(toupper.o)
 .bss           0x00000000        0x0 c:/program files/microchip/xc32/v4.21/bin/bin/../../lib/gcc/pic32c/8.3.1/../../../../pic32c/lib/thumb/v6-m/nofp\libc-musl.a(toupper.o)
 .xc_stack_usage
                0x00000000       0x2e c:/program files/microchip/xc32/v4.21/bin/bin/../../lib/gcc/pic32c/8.3.1/../../../../pic32c/lib/thumb/v6-m/nofp\libc-musl.a(toupper.o)
 .text.__toupper_l
                0x00000000        0x8 c:/program files/microchip/xc32/v4.21/bin/bin/../../lib/gcc/pic32c/8.3.1/../../../../pic32c/lib/thumb/v6-m/nofp\libc-musl.a(toupper.o)
 .xc_stack_usage.hdr
                0x00000000        0xe c:/program files/microchip/xc32/v4.21/bin/bin/../../lib/gcc/pic32c/8.3.1/../../../../pic32c/lib/thumb/v6-m/nofp\libc-musl.a(toupper.o)
 .text          0x00000000        0x0 c:/program files/microchip/xc32/v4.21/bin/bin/../../lib/gcc/pic32c/8.3.1/../../../../pic32c/lib/thumb/v6-m/nofp\libc-musl.a(__environ.o)
 .data          0x00000000        0x0 c:/program files/microchip/xc32/v4.21/bin/bin/../../lib/gcc/pic32c/8.3.1/../../../../pic32c/lib/thumb/v6-m/nofp\libc-musl.a(__environ.o)
 .xc_stack_usage.hdr
                0x00000000        0xe c:/program files/microchip/xc32/v4.21/bin/bin/../../lib/gcc/pic32c/8.3.1/../../../../pic32c/lib/thumb/v6-m/nofp\libc-musl.a(__environ.o)
 .text          0x00000000        0x0 c:/program files/microchip/xc32/v4.21/bin/bin/../../lib/gcc/pic32c/8.3.1/../../../../pic32c/lib/thumb/v6-m/nofp\libc-musl.a(__errno_location.o)
 .data          0x00000000        0x0 c:/program files/microchip/xc32/v4.21/bin/bin/../../lib/gcc/pic32c/8.3.1/../../../../pic32c/lib/thumb/v6-m/nofp\libc-musl.a(__errno_location.o)
 .xc_stack_usage.hdr
                0x00000000        0xe c:/program files/microchip/xc32/v4.21/bin/bin/../../lib/gcc/pic32c/8.3.1/../../../../pic32c/lib/thumb/v6-m/nofp\libc-musl.a(__errno_location.o)
 .text          0x00000000        0x0 c:/program files/microchip/xc32/v4.21/bin/bin/../../lib/gcc/pic32c/8.3.1/../../../../pic32c/lib/thumb/v6-m/nofp\libc-musl.a(__int_vsprintf.o)
 .data          0x00000000        0x0 c:/program files/microchip/xc32/v4.21/bin/bin/../../lib/gcc/pic32c/8.3.1/../../../../pic32c/lib/thumb/v6-m/nofp\libc-musl.a(__int_vsprintf.o)
 .bss           0x00000000        0x0 c:/program files/microchip/xc32/v4.21/bin/bin/../../lib/gcc/pic32c/8.3.1/../../../../pic32c/lib/thumb/v6-m/nofp\libc-musl.a(__int_vsprintf.o)
 .xc_stack_usage
                0x00000000       0x18 c:/program files/microchip/xc32/v4.21/bin/bin/../../lib/gcc/pic32c/8.3.1/../../../../pic32c/lib/thumb/v6-m/nofp\libc-musl.a(__int_vsprintf.o)
 .xc_stack_usage.hdr
                0x00000000        0xe c:/program files/microchip/xc32/v4.21/bin/bin/../../lib/gcc/pic32c/8.3.1/../../../../pic32c/lib/thumb/v6-m/nofp\libc-musl.a(__int_vsprintf.o)
 .text          0x00000000        0x0 c:/program files/microchip/xc32/v4.21/bin/bin/../../lib/gcc/pic32c/8.3.1/../../../../pic32c/lib/thumb/v6-m/nofp\libc-musl.a(__pop_float.o)
 .data          0x00000000        0x0 c:/program files/microchip/xc32/v4.21/bin/bin/../../lib/gcc/pic32c/8.3.1/../../../../pic32c/lib/thumb/v6-m/nofp\libc-musl.a(__pop_float.o)
 .bss           0x00000000        0x0 c:/program files/microchip/xc32/v4.21/bin/bin/../../lib/gcc/pic32c/8.3.1/../../../../pic32c/lib/thumb/v6-m/nofp\libc-musl.a(__pop_float.o)
 .xc_stack_usage
                0x00000000       0x19 c:/program files/microchip/xc32/v4.21/bin/bin/../../lib/gcc/pic32c/8.3.1/../../../../pic32c/lib/thumb/v6-m/nofp\libc-musl.a(__pop_float.o)
 .xc_stack_usage.hdr
                0x00000000        0xe c:/program files/microchip/xc32/v4.21/bin/bin/../../lib/gcc/pic32c/8.3.1/../../../../pic32c/lib/thumb/v6-m/nofp\libc-musl.a(__pop_float.o)
 .text          0x00000000        0x0 c:/program files/microchip/xc32/v4.21/bin/bin/../../lib/gcc/pic32c/8.3.1/../../../../pic32c/lib/thumb/v6-m/nofp\libc-musl.a(__int_vsnprintf.o)
 .data          0x00000000        0x0 c:/program files/microchip/xc32/v4.21/bin/bin/../../lib/gcc/pic32c/8.3.1/../../../../pic32c/lib/thumb/v6-m/nofp\libc-musl.a(__int_vsnprintf.o)
 .bss           0x00000000        0x0 c:/program files/microchip/xc32/v4.21/bin/bin/../../lib/gcc/pic32c/8.3.1/../../../../pic32c/lib/thumb/v6-m/nofp\libc-musl.a(__int_vsnprintf.o)
 .xc_stack_usage
                0x00000000       0x19 c:/program files/microchip/xc32/v4.21/bin/bin/../../lib/gcc/pic32c/8.3.1/../../../../pic32c/lib/thumb/v6-m/nofp\libc-musl.a(__int_vsnprintf.o)
 .xc_stack_usage.hdr
                0x00000000        0xe c:/program files/microchip/xc32/v4.21/bin/bin/../../lib/gcc/pic32c/8.3.1/../../../../pic32c/lib/thumb/v6-m/nofp\libc-musl.a(__int_vsnprintf.o)
 .text          0x00000000        0x0 c:/program files/microchip/xc32/v4.21/bin/bin/../../lib/gcc/pic32c/8.3.1/../../../../pic32c/lib/thumb/v6-m/nofp\libc-musl.a(__int_vfprintf.o)
 .data          0x00000000        0x0 c:/program files/microchip/xc32/v4.21/bin/bin/../../lib/gcc/pic32c/8.3.1/../../../../pic32c/lib/thumb/v6-m/nofp\libc-musl.a(__int_vfprintf.o)
 .bss           0x00000000        0x0 c:/program files/microchip/xc32/v4.21/bin/bin/../../lib/gcc/pic32c/8.3.1/../../../../pic32c/lib/thumb/v6-m/nofp\libc-musl.a(__int_vfprintf.o)
 .xc_stack_usage
                0x00000000       0x18 c:/program files/microchip/xc32/v4.21/bin/bin/../../lib/gcc/pic32c/8.3.1/../../../../pic32c/lib/thumb/v6-m/nofp\libc-musl.a(__int_vfprintf.o)
 .xc_stack_usage.hdr
                0x00000000        0xe c:/program files/microchip/xc32/v4.21/bin/bin/../../lib/gcc/pic32c/8.3.1/../../../../pic32c/lib/thumb/v6-m/nofp\libc-musl.a(__int_vfprintf.o)
 .data          0x00000000        0x0 c:/program files/microchip/xc32/v4.21/bin/bin/../../lib/gcc/pic32c/8.3.1/thumb/v6-m/nofp\libgcc.a(_thumb1_case_uhi.o)
 .bss           0x00000000        0x0 c:/program files/microchip/xc32/v4.21/bin/bin/../../lib/gcc/pic32c/8.3.1/thumb/v6-m/nofp\libgcc.a(_thumb1_case_uhi.o)
 .xc_stack_usage.hdr
                0x00000000        0xe c:/program files/microchip/xc32/v4.21/bin/bin/../../lib/gcc/pic32c/8.3.1/thumb/v6-m/nofp\libgcc.a(_thumb1_case_uhi.o)
 .xc_stack_usage
                0x00000000       0x23 c:/program files/microchip/xc32/v4.21/bin/bin/../../lib/gcc/pic32c/8.3.1/thumb/v6-m/nofp\libgcc.a(_thumb1_case_uhi.o)
 .data          0x00000000        0x0 c:/program files/microchip/xc32/v4.21/bin/bin/../../lib/gcc/pic32c/8.3.1/thumb/v6-m/nofp\libgcc.a(_udivsi3.o)
 .bss           0x00000000        0x0 c:/program files/microchip/xc32/v4.21/bin/bin/../../lib/gcc/pic32c/8.3.1/thumb/v6-m/nofp\libgcc.a(_udivsi3.o)
 .xc_stack_usage.hdr
                0x00000000        0xe c:/program files/microchip/xc32/v4.21/bin/bin/../../lib/gcc/pic32c/8.3.1/thumb/v6-m/nofp\libgcc.a(_udivsi3.o)
 .xc_stack_usage
                0x00000000       0x35 c:/program files/microchip/xc32/v4.21/bin/bin/../../lib/gcc/pic32c/8.3.1/thumb/v6-m/nofp\libgcc.a(_udivsi3.o)
 .data          0x00000000        0x0 c:/program files/microchip/xc32/v4.21/bin/bin/../../lib/gcc/pic32c/8.3.1/thumb/v6-m/nofp\libgcc.a(_dvmd_tls.o)
 .bss           0x00000000        0x0 c:/program files/microchip/xc32/v4.21/bin/bin/../../lib/gcc/pic32c/8.3.1/thumb/v6-m/nofp\libgcc.a(_dvmd_tls.o)
 .xc_stack_usage.hdr
                0x00000000        0xe c:/program files/microchip/xc32/v4.21/bin/bin/../../lib/gcc/pic32c/8.3.1/thumb/v6-m/nofp\libgcc.a(_dvmd_tls.o)
 .xc_stack_usage
                0x00000000       0x36 c:/program files/microchip/xc32/v4.21/bin/bin/../../lib/gcc/pic32c/8.3.1/thumb/v6-m/nofp\libgcc.a(_dvmd_tls.o)
 .data          0x00000000        0x0 c:/program files/microchip/xc32/v4.21/bin/bin/../../lib/gcc/pic32c/8.3.1/thumb/v6-m/nofp\libgcc.a(_aeabi_uldivmod.o)
 .bss           0x00000000        0x0 c:/program files/microchip/xc32/v4.21/bin/bin/../../lib/gcc/pic32c/8.3.1/thumb/v6-m/nofp\libgcc.a(_aeabi_uldivmod.o)
 .xc_stack_usage.hdr
                0x00000000        0xe c:/program files/microchip/xc32/v4.21/bin/bin/../../lib/gcc/pic32c/8.3.1/thumb/v6-m/nofp\libgcc.a(_aeabi_uldivmod.o)
 .xc_stack_usage
                0x00000000       0x1e c:/program files/microchip/xc32/v4.21/bin/bin/../../lib/gcc/pic32c/8.3.1/thumb/v6-m/nofp\libgcc.a(_aeabi_uldivmod.o)
 .data          0x00000000        0x0 c:/program files/microchip/xc32/v4.21/bin/bin/../../lib/gcc/pic32c/8.3.1/thumb/v6-m/nofp\libgcc.a(_udivmoddi4.o)
 .bss           0x00000000        0x0 c:/program files/microchip/xc32/v4.21/bin/bin/../../lib/gcc/pic32c/8.3.1/thumb/v6-m/nofp\libgcc.a(_udivmoddi4.o)
 .xc_stack_usage
                0x00000000       0x1a c:/program files/microchip/xc32/v4.21/bin/bin/../../lib/gcc/pic32c/8.3.1/thumb/v6-m/nofp\libgcc.a(_udivmoddi4.o)
 .ARM.extab     0x00000000        0x0 c:/program files/microchip/xc32/v4.21/bin/bin/../../lib/gcc/pic32c/8.3.1/thumb/v6-m/nofp\libgcc.a(_udivmoddi4.o)
 .xc_stack_usage.hdr
                0x00000000        0xe c:/program files/microchip/xc32/v4.21/bin/bin/../../lib/gcc/pic32c/8.3.1/thumb/v6-m/nofp\libgcc.a(_udivmoddi4.o)
 .data          0x00000000        0x0 c:/program files/microchip/xc32/v4.21/bin/bin/../../lib/gcc/pic32c/8.3.1/thumb/v6-m/nofp\libgcc.a(_lshrdi3.o)
 .bss           0x00000000        0x0 c:/program files/microchip/xc32/v4.21/bin/bin/../../lib/gcc/pic32c/8.3.1/thumb/v6-m/nofp\libgcc.a(_lshrdi3.o)
 .xc_stack_usage.hdr
                0x00000000        0xe c:/program files/microchip/xc32/v4.21/bin/bin/../../lib/gcc/pic32c/8.3.1/thumb/v6-m/nofp\libgcc.a(_lshrdi3.o)
 .xc_stack_usage
                0x00000000       0x17 c:/program files/microchip/xc32/v4.21/bin/bin/../../lib/gcc/pic32c/8.3.1/thumb/v6-m/nofp\libgcc.a(_lshrdi3.o)
 .data          0x00000000        0x0 c:/program files/microchip/xc32/v4.21/bin/bin/../../lib/gcc/pic32c/8.3.1/thumb/v6-m/nofp\libgcc.a(_ashldi3.o)
 .bss           0x00000000        0x0 c:/program files/microchip/xc32/v4.21/bin/bin/../../lib/gcc/pic32c/8.3.1/thumb/v6-m/nofp\libgcc.a(_ashldi3.o)
 .xc_stack_usage.hdr
                0x00000000        0xe c:/program files/microchip/xc32/v4.21/bin/bin/../../lib/gcc/pic32c/8.3.1/thumb/v6-m/nofp\libgcc.a(_ashldi3.o)
 .xc_stack_usage
                0x00000000       0x17 c:/program files/microchip/xc32/v4.21/bin/bin/../../lib/gcc/pic32c/8.3.1/thumb/v6-m/nofp\libgcc.a(_ashldi3.o)
 .data          0x00000000        0x0 c:/program files/microchip/xc32/v4.21/bin/bin/../../lib/gcc/pic32c/8.3.1/thumb/v6-m/nofp\libgcc.a(_clzdi2.o)
 .bss           0x00000000        0x0 c:/program files/microchip/xc32/v4.21/bin/bin/../../lib/gcc/pic32c/8.3.1/thumb/v6-m/nofp\libgcc.a(_clzdi2.o)
 .xc_stack_usage.hdr
                0x00000000        0xe c:/program files/microchip/xc32/v4.21/bin/bin/../../lib/gcc/pic32c/8.3.1/thumb/v6-m/nofp\libgcc.a(_clzdi2.o)
 .xc_stack_usage
                0x00000000       0x16 c:/program files/microchip/xc32/v4.21/bin/bin/../../lib/gcc/pic32c/8.3.1/thumb/v6-m/nofp\libgcc.a(_clzdi2.o)
 .data          0x00000000        0x0 c:/program files/microchip/xc32/v4.21/bin/bin/../../lib/gcc/pic32c/8.3.1/thumb/v6-m/nofp\libgcc.a(_clzsi2.o)
 .bss           0x00000000        0x0 c:/program files/microchip/xc32/v4.21/bin/bin/../../lib/gcc/pic32c/8.3.1/thumb/v6-m/nofp\libgcc.a(_clzsi2.o)
 .xc_stack_usage.hdr
                0x00000000        0xe c:/program files/microchip/xc32/v4.21/bin/bin/../../lib/gcc/pic32c/8.3.1/thumb/v6-m/nofp\libgcc.a(_clzsi2.o)
 .xc_stack_usage
                0x00000000       0x16 c:/program files/microchip/xc32/v4.21/bin/bin/../../lib/gcc/pic32c/8.3.1/thumb/v6-m/nofp\libgcc.a(_clzsi2.o)
 .text          0x00000000        0x0 c:/program files/microchip/xc32/v4.21/bin/bin/../../lib/gcc/pic32c/8.3.1/thumb/v6-m/nofp/crtend.o
 .data          0x00000000        0x0 c:/program files/microchip/xc32/v4.21/bin/bin/../../lib/gcc/pic32c/8.3.1/thumb/v6-m/nofp/crtend.o
 .bss           0x00000000        0x0 c:/program files/microchip/xc32/v4.21/bin/bin/../../lib/gcc/pic32c/8.3.1/thumb/v6-m/nofp/crtend.o
 .eh_frame      0x00000000        0x4 c:/program files/microchip/xc32/v4.21/bin/bin/../../lib/gcc/pic32c/8.3.1/thumb/v6-m/nofp/crtend.o
 .xc_stack_usage.hdr
                0x00000000        0xe c:/program files/microchip/xc32/v4.21/bin/bin/../../lib/gcc/pic32c/8.3.1/thumb/v6-m/nofp/crtend.o
 .comment       0x00000000       0x2c c:/program files/microchip/xc32/v4.21/bin/bin/../../lib/gcc/pic32c/8.3.1/thumb/v6-m/nofp/crtend.o
 .ARM.attributes
                0x00000000       0x2c c:/program files/microchip/xc32/v4.21/bin/bin/../../lib/gcc/pic32c/8.3.1/thumb/v6-m/nofp/crtend.o
 .text          0x00000000        0x0 c:/program files/microchip/xc32/v4.21/bin/bin/../../lib/gcc/pic32c/8.3.1/thumb/v6-m/nofp/crtn.o
 .data          0x00000000        0x0 c:/program files/microchip/xc32/v4.21/bin/bin/../../lib/gcc/pic32c/8.3.1/thumb/v6-m/nofp/crtn.o
 .bss           0x00000000        0x0 c:/program files/microchip/xc32/v4.21/bin/bin/../../lib/gcc/pic32c/8.3.1/thumb/v6-m/nofp/crtn.o
 .xc_stack_usage.hdr
                0x00000000        0xe c:/program files/microchip/xc32/v4.21/bin/bin/../../lib/gcc/pic32c/8.3.1/thumb/v6-m/nofp/crtn.o

Memory Configuration

Name             Origin             Length             Attributes
rom              0x00000000         0x00040000         xrl
ram              0x20000000         0x00008000         xw !r
config_00804000  0x00804000         0x00000004
config_00804004  0x00804004         0x00000004
*default*        0x00000000         0xffffffff

Linker script and memory map

LOAD c:/program files/microchip/xc32/v4.21/bin/bin/../../lib/gcc/pic32c/8.3.1/thumb/v6-m/nofp/crti.o
LOAD c:/program files/microchip/xc32/v4.21/bin/bin/../../lib/gcc/pic32c/8.3.1/thumb/v6-m/nofp/crtbegin.o
LOAD build/default/production/_ext/1984496892/plib_clock.o
LOAD build/default/production/_ext/1986646378/plib_evsys.o
LOAD build/default/production/_ext/1865468468/plib_nvic.o
LOAD build/default/production/_ext/1593096446/plib_nvmctrl.o
LOAD build/default/production/_ext/1865521619/plib_port.o
LOAD build/default/production/_ext/60180175/plib_rtc_timer.o
LOAD build/default/production/_ext/504274921/plib_sercom4_usart.o
LOAD build/default/production/_ext/163028504/xc32_monitor.o
LOAD build/default/production/_ext/1662611032/kronocommuart_sam.o
LOAD build/default/production/_ext/1662611032/kronocommadaptor.o
LOAD build/default/production/_ext/162237794/touch.o
LOAD build/default/production/_ext/162237794/touch_example.o
LOAD build/default/production/_ext/1171490990/initialization.o
LOAD build/default/production/_ext/1171490990/interrupts.o
LOAD build/default/production/_ext/1171490990/exceptions.o
LOAD build/default/production/_ext/1171490990/startup_xc32.o
LOAD build/default/production/_ext/1171490990/libc_syscalls.o
LOAD build/default/production/_ext/1360937237/main.o
LOAD ..\src\config\default\touch\lib\qtm_acq_samc21_0x0020.X.a
LOAD ..\src\config\default\touch\lib\qtm_touch_key_cm0p_0x0002.X.a
LOAD ..\src\config\default\touch\lib\qtm_freq_hop_cm0p_0x0006.X.a
LOAD ..\src\config\default\touch\lib\qtm_surface_cs_2t_cm0p_0x0025.X.a
LOAD ..\src\config\default\touch\lib\qtm_surface_gestures_cm0p_0x0023.X.a
                0x00000001                __MPLAB_BUILD = 0x1
                0x00040000                __rom_end = (ORIGIN (rom) + LENGTH (rom))
                0x20008000                __ram_end = (ORIGIN (ram) + LENGTH (ram))

.config_00804000
 *(.config_00804000)

.config_00804004
 *(.config_00804004)

.vectors        0x00000000       0xbc
                0x00000000                . = ALIGN (0x4)
                0x00000000                _sfixed = .
 *(.vectors .vectors.* .vectors_default .vectors_default.*)
 .vectors.exception_table
                0x00000000       0xbc build/default/production/_ext/1171490990/interrupts.o
                0x00000000                exception_table
 *(.isr_vector)
 *(.reset*)
 *(.after_vectors)

.text           0x000000bc       0x20
                0x000000bc                . = ALIGN (0x4)
 *(.glue_7t)
 .glue_7t       0x000000bc        0x0 linker stubs
 *(.glue_7)
 .glue_7        0x000000bc        0x0 linker stubs
 *(.gnu.linkonce.r.*)
 *(.ARM.extab* .gnu.linkonce.armextab.*)
                0x000000bc                . = ALIGN (0x4)
 *(.init)
 .init          0x000000bc        0x4 c:/program files/microchip/xc32/v4.21/bin/bin/../../lib/gcc/pic32c/8.3.1/thumb/v6-m/nofp/crti.o
                0x000000bc                _init
 .init          0x000000c0        0x8 c:/program files/microchip/xc32/v4.21/bin/bin/../../lib/gcc/pic32c/8.3.1/thumb/v6-m/nofp/crtn.o
                0x000000c8                . = ALIGN (0x4)
                0x000000c8                __preinit_array_start = .
 *(.preinit_array)
                0x000000c8                __preinit_array_end = .
                0x000000c8                . = ALIGN (0x4)
                0x000000c8                __init_array_start = .
 *(SORT_BY_NAME(.init_array.*))
 *(.init_array)
 .init_array    0x000000c8        0x4 c:/program files/microchip/xc32/v4.21/bin/bin/../../lib/gcc/pic32c/8.3.1/thumb/v6-m/nofp/crtbegin.o
                0x000000cc                __init_array_end = .
                0x000000cc                . = ALIGN (0x4)
 *crtbegin.o(.ctors)
 *(EXCLUDE_FILE(*crtend.o) .ctors)
 *(SORT_BY_NAME(.ctors.*))
 *crtend.o(.ctors)
                0x000000cc                . = ALIGN (0x4)
 *(.fini)
 .fini          0x000000cc        0x4 c:/program files/microchip/xc32/v4.21/bin/bin/../../lib/gcc/pic32c/8.3.1/thumb/v6-m/nofp/crti.o
                0x000000cc                _fini
 .fini          0x000000d0        0x8 c:/program files/microchip/xc32/v4.21/bin/bin/../../lib/gcc/pic32c/8.3.1/thumb/v6-m/nofp/crtn.o
                0x000000d8                . = ALIGN (0x4)
                0x000000d8                __fini_array_start = .
 *(.fini_array)
 .fini_array    0x000000d8        0x4 c:/program files/microchip/xc32/v4.21/bin/bin/../../lib/gcc/pic32c/8.3.1/thumb/v6-m/nofp/crtbegin.o
 *(SORT_BY_NAME(.fini_array.*))
                0x000000dc                __fini_array_end = .
 *crtbegin.o(.dtors)
 *(EXCLUDE_FILE(*crtend.o) .dtors)
 *(SORT_BY_NAME(.dtors.*))
 *crtend.o(.dtors)
                0x000000dc                . = ALIGN (0x4)
                0x000000dc                _efixed = .
                [!provide]                PROVIDE (__exidx_start = .)

.ARM.exidx      0x000000dc        0x8
 *(.ARM.exidx* .gnu.linkonce.armexidx.*)
 .ARM.exidx     0x000000dc        0x8 c:/program files/microchip/xc32/v4.21/bin/bin/../../lib/gcc/pic32c/8.3.1/thumb/v6-m/nofp\libgcc.a(_udivmoddi4.o)
                [!provide]                PROVIDE (__exidx_end = .)
                0x000000e4                . = ALIGN (0x4)
                0x000000e4                _etext = .

.bss            0x20000000       0x14
                0x20000000                . = ALIGN (0x4)
                0x20000000                __bss_start__ = .
                0x20000000                _sbss = .
                0x20000000                _szero = .
 *(COMMON)
 COMMON         0x20000000        0xc ..\src\config\default\touch\lib\qtm_acq_samc21_0x0020.X.a(sam_acq_x_samc21.o)
                0x20000000                p_qtm_drivenshield_config
                0x20000004                qtm_acquisition_control_working_set_ptr
                0x20000008                qtm_raw_data_measurements_ptr
 COMMON         0x2000000c        0x8 ..\src\config\default\touch\lib\qtm_surface_gestures_cm0p_0x0023.X.a(sam_surface_gestures_x_cm0p.o)
                0x2000000c                timer
                0x20000010                cfgRam
                0x20000014                . = ALIGN (0x4)
                0x20000014                __bss_end__ = .
                0x20000014                _ebss = .
                0x20000014                _ezero = .
                0x20000014                . = ALIGN (0x4)
                0x20000014                _end = .
                0x20007fff                _ram_end_ = ((ORIGIN (ram) + LENGTH (ram)) - 0x1)
                0x00000200                _min_heap_size = 0x200
START GROUP
LOAD c:/program files/microchip/xc32/v4.21/bin/bin/../../lib/gcc/pic32c/8.3.1/../../../../pic32c/lib/thumb/v6-m/nofp\libpic32c.a
LOAD c:/program files/microchip/xc32/v4.21/bin/bin/../../lib/gcc/pic32c/8.3.1/../../../../pic32c/lib/thumb/v6-m/nofp\libm-emfloat.a
LOAD c:/program files/microchip/xc32/v4.21/bin/bin/../../lib/gcc/pic32c/8.3.1/../../../../pic32c/lib/thumb/v6-m/nofp\libc-musl.a
LOAD c:/program files/microchip/xc32/v4.21/bin/bin/../../lib/gcc/pic32c/8.3.1/../../../../pic32c/lib/thumb/v6-m/nofp\libm-emfloat.a
LOAD c:/program files/microchip/xc32/v4.21/bin/bin/../../lib/gcc/pic32c/8.3.1/thumb/v6-m/nofp\libgcc.a
END GROUP
LOAD c:/program files/microchip/xc32/v4.21/bin/bin/../../lib/gcc/pic32c/8.3.1/thumb/v6-m/nofp/crtend.o
LOAD c:/program files/microchip/xc32/v4.21/bin/bin/../../lib/gcc/pic32c/8.3.1/thumb/v6-m/nofp/crtn.o
OUTPUT(dist/default/production/samc21xpro-qt8.X.production.elf elf32-littlearm)
LOAD stack
LOAD data_init

.ARM.attributes
                0x00000000       0x2c
 .ARM.attributes
                0x00000000       0x1e c:/program files/microchip/xc32/v4.21/bin/bin/../../lib/gcc/pic32c/8.3.1/thumb/v6-m/nofp/crti.o
 .ARM.attributes
                0x0000001e       0x2c c:/program files/microchip/xc32/v4.21/bin/bin/../../lib/gcc/pic32c/8.3.1/thumb/v6-m/nofp/crtbegin.o
 .ARM.attributes
                0x0000004a       0x2c build/default/production/_ext/1984496892/plib_clock.o
 .ARM.attributes
                0x00000076       0x2c build/default/production/_ext/1986646378/plib_evsys.o
 .ARM.attributes
                0x000000a2       0x2c build/default/production/_ext/1865468468/plib_nvic.o
 .ARM.attributes
                0x000000ce       0x2c build/default/production/_ext/1593096446/plib_nvmctrl.o
 .ARM.attributes
                0x000000fa       0x2c build/default/production/_ext/1865521619/plib_port.o
 .ARM.attributes
                0x00000126       0x2c build/default/production/_ext/60180175/plib_rtc_timer.o
 .ARM.attributes
                0x00000152       0x2c build/default/production/_ext/504274921/plib_sercom4_usart.o
 .ARM.attributes
                0x0000017e       0x2c build/default/production/_ext/1662611032/kronocommuart_sam.o
 .ARM.attributes
                0x000001aa       0x2c build/default/production/_ext/1662611032/kronocommadaptor.o
 .ARM.attributes
                0x000001d6       0x2c build/default/production/_ext/162237794/touch.o
 .ARM.attributes
                0x00000202       0x2c build/default/production/_ext/1171490990/initialization.o
 .ARM.attributes
                0x0000022e       0x2c build/default/production/_ext/1171490990/interrupts.o
 .ARM.attributes
                0x0000025a       0x2c build/default/production/_ext/1171490990/exceptions.o
 .ARM.attributes
                0x00000286       0x2c build/default/production/_ext/1171490990/startup_xc32.o
 .ARM.attributes
                0x000002b2       0x2c build/default/production/_ext/1360937237/main.o
 .ARM.attributes
                0x000002de       0x2c ..\src\config\default\touch\lib\qtm_acq_samc21_0x0020.X.a(sam_acq_x_samc21.o)
 .ARM.attributes
                0x0000030a       0x2c ..\src\config\default\touch\lib\qtm_touch_key_cm0p_0x0002.X.a(sam_touch_key_x_cm0p.o)
 .ARM.attributes
                0x00000336       0x2c ..\src\config\default\touch\lib\qtm_freq_hop_cm0p_0x0006.X.a(sam_freq_hop_x_cm0p.o)
 .ARM.attributes
                0x00000362       0x2c ..\src\config\default\touch\lib\qtm_surface_cs_2t_cm0p_0x0025.X.a(sam_surface_cs_2t_x_cm0p.o)
 .ARM.attributes
                0x0000038e       0x2c ..\src\config\default\touch\lib\qtm_surface_gestures_cm0p_0x0023.X.a(sam_surface_gestures_x_cm0p.o)
 .ARM.attributes
                0x000003ba       0x2c c:/program files/microchip/xc32/v4.21/bin/bin/../../lib/gcc/pic32c/8.3.1/../../../../pic32c/lib/thumb/v6-m/nofp\libpic32c.a(data_init_wrapper.o)
 .ARM.attributes
                0x000003e6       0x2c c:/program files/microchip/xc32/v4.21/bin/bin/../../lib/gcc/pic32c/8.3.1/../../../../pic32c/lib/thumb/v6-m/nofp\libpic32c.a(data_init_0_1.o)
 .ARM.attributes
                0x00000412       0x2e c:/program files/microchip/xc32/v4.21/bin/bin/../../lib/gcc/pic32c/8.3.1/../../../../pic32c/lib/thumb/v6-m/nofp\libc-musl.a(__libc_start_main.o)
 .ARM.attributes
                0x00000440       0x2e c:/program files/microchip/xc32/v4.21/bin/bin/../../lib/gcc/pic32c/8.3.1/../../../../pic32c/lib/thumb/v6-m/nofp\libc-musl.a(libc.o)
 .ARM.attributes
                0x0000046e       0x2e c:/program files/microchip/xc32/v4.21/bin/bin/../../lib/gcc/pic32c/8.3.1/../../../../pic32c/lib/thumb/v6-m/nofp\libc-musl.a(__sio_sprintf_doux.o)
 .ARM.attributes
                0x0000049c       0x2e c:/program files/microchip/xc32/v4.21/bin/bin/../../lib/gcc/pic32c/8.3.1/../../../../pic32c/lib/thumb/v6-m/nofp\libc-musl.a(__fmt_d.o)
 .ARM.attributes
                0x000004ca       0x2e c:/program files/microchip/xc32/v4.21/bin/bin/../../lib/gcc/pic32c/8.3.1/../../../../pic32c/lib/thumb/v6-m/nofp\libc-musl.a(__fmt_o.o)
 .ARM.attributes
                0x000004f8       0x2e c:/program files/microchip/xc32/v4.21/bin/bin/../../lib/gcc/pic32c/8.3.1/../../../../pic32c/lib/thumb/v6-m/nofp\libc-musl.a(__fmt_s.o)
 .ARM.attributes
                0x00000526       0x2e c:/program files/microchip/xc32/v4.21/bin/bin/../../lib/gcc/pic32c/8.3.1/../../../../pic32c/lib/thumb/v6-m/nofp\libc-musl.a(__fmt_u.o)
 .ARM.attributes
                0x00000554       0x2e c:/program files/microchip/xc32/v4.21/bin/bin/../../lib/gcc/pic32c/8.3.1/../../../../pic32c/lib/thumb/v6-m/nofp\libc-musl.a(__fmt_x.o)
 .ARM.attributes
                0x00000582       0x2e c:/program files/microchip/xc32/v4.21/bin/bin/../../lib/gcc/pic32c/8.3.1/../../../../pic32c/lib/thumb/v6-m/nofp\libc-musl.a(__pop_int.o)
 .ARM.attributes
                0x000005b0       0x2e c:/program files/microchip/xc32/v4.21/bin/bin/../../lib/gcc/pic32c/8.3.1/../../../../pic32c/lib/thumb/v6-m/nofp\libc-musl.a(__pop_ptr.o)
 .ARM.attributes
                0x000005de       0x2e c:/program files/microchip/xc32/v4.21/bin/bin/../../lib/gcc/pic32c/8.3.1/../../../../pic32c/lib/thumb/v6-m/nofp\libc-musl.a(__printf_core.o)
 .ARM.attributes
                0x0000060c       0x2e c:/program files/microchip/xc32/v4.21/bin/bin/../../lib/gcc/pic32c/8.3.1/../../../../pic32c/lib/thumb/v6-m/nofp\libc-musl.a(atoi.o)
 .ARM.attributes
                0x0000063a       0x2e c:/program files/microchip/xc32/v4.21/bin/bin/../../lib/gcc/pic32c/8.3.1/../../../../pic32c/lib/thumb/v6-m/nofp\libc-musl.a(memcpy.o)
 .ARM.attributes
                0x00000668       0x2e c:/program files/microchip/xc32/v4.21/bin/bin/../../lib/gcc/pic32c/8.3.1/../../../../pic32c/lib/thumb/v6-m/nofp\libc-musl.a(memset.o)
 .ARM.attributes
                0x00000696       0x2e c:/program files/microchip/xc32/v4.21/bin/bin/../../lib/gcc/pic32c/8.3.1/../../../../pic32c/lib/thumb/v6-m/nofp\libc-musl.a(strlen.o)
 .ARM.attributes
                0x000006c4       0x2e c:/program files/microchip/xc32/v4.21/bin/bin/../../lib/gcc/pic32c/8.3.1/../../../../pic32c/lib/thumb/v6-m/nofp\libc-musl.a(tolower.o)
 .ARM.attributes
                0x000006f2       0x2e c:/program files/microchip/xc32/v4.21/bin/bin/../../lib/gcc/pic32c/8.3.1/../../../../pic32c/lib/thumb/v6-m/nofp\libc-musl.a(toupper.o)
 .ARM.attributes
                0x00000720       0x2e c:/program files/microchip/xc32/v4.21/bin/bin/../../lib/gcc/pic32c/8.3.1/../../../../pic32c/lib/thumb/v6-m/nofp\libc-musl.a(__environ.o)
 .ARM.attributes
                0x0000074e       0x2e c:/program files/microchip/xc32/v4.21/bin/bin/../../lib/gcc/pic32c/8.3.1/../../../../pic32c/lib/thumb/v6-m/nofp\libc-musl.a(__errno_location.o)
 .ARM.attributes
                0x0000077c       0x2e c:/program files/microchip/xc32/v4.21/bin/bin/../../lib/gcc/pic32c/8.3.1/../../../../pic32c/lib/thumb/v6-m/nofp\libc-musl.a(__int_vsprintf.o)
 .ARM.attributes
                0x000007aa       0x2e c:/program files/microchip/xc32/v4.21/bin/bin/../../lib/gcc/pic32c/8.3.1/../../../../pic32c/lib/thumb/v6-m/nofp\libc-musl.a(__pop_float.o)
 .ARM.attributes
                0x000007d8       0x2e c:/program files/microchip/xc32/v4.21/bin/bin/../../lib/gcc/pic32c/8.3.1/../../../../pic32c/lib/thumb/v6-m/nofp\libc-musl.a(__int_vsnprintf.o)
 .ARM.attributes
                0x00000806       0x2e c:/program files/microchip/xc32/v4.21/bin/bin/../../lib/gcc/pic32c/8.3.1/../../../../pic32c/lib/thumb/v6-m/nofp\libc-musl.a(__int_vfprintf.o)
 .ARM.attributes
                0x00000834       0x1e c:/program files/microchip/xc32/v4.21/bin/bin/../../lib/gcc/pic32c/8.3.1/thumb/v6-m/nofp\libgcc.a(_thumb1_case_uhi.o)
 .ARM.attributes
                0x00000852       0x1e c:/program files/microchip/xc32/v4.21/bin/bin/../../lib/gcc/pic32c/8.3.1/thumb/v6-m/nofp\libgcc.a(_udivsi3.o)
 .ARM.attributes
                0x00000870       0x1e c:/program files/microchip/xc32/v4.21/bin/bin/../../lib/gcc/pic32c/8.3.1/thumb/v6-m/nofp\libgcc.a(_dvmd_tls.o)
 .ARM.attributes
                0x0000088e       0x1e c:/program files/microchip/xc32/v4.21/bin/bin/../../lib/gcc/pic32c/8.3.1/thumb/v6-m/nofp\libgcc.a(_aeabi_uldivmod.o)
 .ARM.attributes
                0x000008ac       0x2c c:/program files/microchip/xc32/v4.21/bin/bin/../../lib/gcc/pic32c/8.3.1/thumb/v6-m/nofp\libgcc.a(_udivmoddi4.o)
 .ARM.attributes
                0x000008d8       0x1e c:/program files/microchip/xc32/v4.21/bin/bin/../../lib/gcc/pic32c/8.3.1/thumb/v6-m/nofp\libgcc.a(_lshrdi3.o)
 .ARM.attributes
                0x000008f6       0x1e c:/program files/microchip/xc32/v4.21/bin/bin/../../lib/gcc/pic32c/8.3.1/thumb/v6-m/nofp\libgcc.a(_ashldi3.o)
 .ARM.attributes
                0x00000914       0x1e c:/program files/microchip/xc32/v4.21/bin/bin/../../lib/gcc/pic32c/8.3.1/thumb/v6-m/nofp\libgcc.a(_clzdi2.o)
 .ARM.attributes
                0x00000932       0x1e c:/program files/microchip/xc32/v4.21/bin/bin/../../lib/gcc/pic32c/8.3.1/thumb/v6-m/nofp\libgcc.a(_clzsi2.o)
 .ARM.attributes
                0x00000950       0x1e c:/program files/microchip/xc32/v4.21/bin/bin/../../lib/gcc/pic32c/8.3.1/thumb/v6-m/nofp/crtn.o

.comment        0x00000000       0x67
 .comment       0x00000000       0x2b c:/program files/microchip/xc32/v4.21/bin/bin/../../lib/gcc/pic32c/8.3.1/thumb/v6-m/nofp/crtbegin.o
                                 0x2c (size before relaxing)
 .comment       0x0000002b       0x2c build/default/production/_ext/1984496892/plib_clock.o
 .comment       0x0000002b       0x2c build/default/production/_ext/1986646378/plib_evsys.o
 .comment       0x0000002b       0x2c build/default/production/_ext/1865468468/plib_nvic.o
 .comment       0x0000002b       0x2c build/default/production/_ext/1593096446/plib_nvmctrl.o
 .comment       0x0000002b       0x2c build/default/production/_ext/1865521619/plib_port.o
 .comment       0x0000002b       0x2c build/default/production/_ext/60180175/plib_rtc_timer.o
 .comment       0x0000002b       0x2c build/default/production/_ext/504274921/plib_sercom4_usart.o
 .comment       0x0000002b       0x2c build/default/production/_ext/1662611032/kronocommuart_sam.o
 .comment       0x0000002b       0x2c build/default/production/_ext/1662611032/kronocommadaptor.o
 .comment       0x0000002b       0x2c build/default/production/_ext/162237794/touch.o
 .comment       0x0000002b       0x2c build/default/production/_ext/1171490990/initialization.o
 .comment       0x0000002b       0x2c build/default/production/_ext/1171490990/interrupts.o
 .comment       0x0000002b       0x2c build/default/production/_ext/1171490990/exceptions.o
 .comment       0x0000002b       0x2c build/default/production/_ext/1171490990/startup_xc32.o
 .comment       0x0000002b       0x2c build/default/production/_ext/1360937237/main.o
 .comment       0x0000002b       0x3c ..\src\config\default\touch\lib\qtm_acq_samc21_0x0020.X.a(sam_acq_x_samc21.o)
                                 0x3d (size before relaxing)
 .comment       0x00000067       0x3d ..\src\config\default\touch\lib\qtm_touch_key_cm0p_0x0002.X.a(sam_touch_key_x_cm0p.o)
 .comment       0x00000067       0x3d ..\src\config\default\touch\lib\qtm_freq_hop_cm0p_0x0006.X.a(sam_freq_hop_x_cm0p.o)
 .comment       0x00000067       0x3d ..\src\config\default\touch\lib\qtm_surface_cs_2t_cm0p_0x0025.X.a(sam_surface_cs_2t_x_cm0p.o)
 .comment       0x00000067       0x3d ..\src\config\default\touch\lib\qtm_surface_gestures_cm0p_0x0023.X.a(sam_surface_gestures_x_cm0p.o)
 .comment       0x00000067       0x2c c:/program files/microchip/xc32/v4.21/bin/bin/../../lib/gcc/pic32c/8.3.1/../../../../pic32c/lib/thumb/v6-m/nofp\libpic32c.a(data_init_wrapper.o)
 .comment       0x00000067       0x2c c:/program files/microchip/xc32/v4.21/bin/bin/../../lib/gcc/pic32c/8.3.1/../../../../pic32c/lib/thumb/v6-m/nofp\libpic32c.a(data_init_0_1.o)
 .comment       0x00000067       0x2c c:/program files/microchip/xc32/v4.21/bin/bin/../../lib/gcc/pic32c/8.3.1/../../../../pic32c/lib/thumb/v6-m/nofp\libc-musl.a(__libc_start_main.o)
 .comment       0x00000067       0x2c c:/program files/microchip/xc32/v4.21/bin/bin/../../lib/gcc/pic32c/8.3.1/../../../../pic32c/lib/thumb/v6-m/nofp\libc-musl.a(libc.o)
 .comment       0x00000067       0x2c c:/program files/microchip/xc32/v4.21/bin/bin/../../lib/gcc/pic32c/8.3.1/../../../../pic32c/lib/thumb/v6-m/nofp\libc-musl.a(__sio_sprintf_doux.o)
 .comment       0x00000067       0x2c c:/program files/microchip/xc32/v4.21/bin/bin/../../lib/gcc/pic32c/8.3.1/../../../../pic32c/lib/thumb/v6-m/nofp\libc-musl.a(__fmt_d.o)
 .comment       0x00000067       0x2c c:/program files/microchip/xc32/v4.21/bin/bin/../../lib/gcc/pic32c/8.3.1/../../../../pic32c/lib/thumb/v6-m/nofp\libc-musl.a(__fmt_o.o)
 .comment       0x00000067       0x2c c:/program files/microchip/xc32/v4.21/bin/bin/../../lib/gcc/pic32c/8.3.1/../../../../pic32c/lib/thumb/v6-m/nofp\libc-musl.a(__fmt_s.o)
 .comment       0x00000067       0x2c c:/program files/microchip/xc32/v4.21/bin/bin/../../lib/gcc/pic32c/8.3.1/../../../../pic32c/lib/thumb/v6-m/nofp\libc-musl.a(__fmt_u.o)
 .comment       0x00000067       0x2c c:/program files/microchip/xc32/v4.21/bin/bin/../../lib/gcc/pic32c/8.3.1/../../../../pic32c/lib/thumb/v6-m/nofp\libc-musl.a(__fmt_x.o)
 .comment       0x00000067       0x2c c:/program files/microchip/xc32/v4.21/bin/bin/../../lib/gcc/pic32c/8.3.1/../../../../pic32c/lib/thumb/v6-m/nofp\libc-musl.a(__pop_int.o)
 .comment       0x00000067       0x2c c:/program files/microchip/xc32/v4.21/bin/bin/../../lib/gcc/pic32c/8.3.1/../../../../pic32c/lib/thumb/v6-m/nofp\libc-musl.a(__pop_ptr.o)
 .comment       0x00000067       0x2c c:/program files/microchip/xc32/v4.21/bin/bin/../../lib/gcc/pic32c/8.3.1/../../../../pic32c/lib/thumb/v6-m/nofp\libc-musl.a(__printf_core.o)
 .comment       0x00000067       0x2c c:/program files/microchip/xc32/v4.21/bin/bin/../../lib/gcc/pic32c/8.3.1/../../../../pic32c/lib/thumb/v6-m/nofp\libc-musl.a(atoi.o)
 .comment       0x00000067       0x2c c:/program files/microchip/xc32/v4.21/bin/bin/../../lib/gcc/pic32c/8.3.1/../../../../pic32c/lib/thumb/v6-m/nofp\libc-musl.a(memcpy.o)
 .comment       0x00000067       0x2c c:/program files/microchip/xc32/v4.21/bin/bin/../../lib/gcc/pic32c/8.3.1/../../../../pic32c/lib/thumb/v6-m/nofp\libc-musl.a(memset.o)
 .comment       0x00000067       0x2c c:/program files/microchip/xc32/v4.21/bin/bin/../../lib/gcc/pic32c/8.3.1/../../../../pic32c/lib/thumb/v6-m/nofp\libc-musl.a(strlen.o)
 .comment       0x00000067       0x2c c:/program files/microchip/xc32/v4.21/bin/bin/../../lib/gcc/pic32c/8.3.1/../../../../pic32c/lib/thumb/v6-m/nofp\libc-musl.a(tolower.o)
 .comment       0x00000067       0x2c c:/program files/microchip/xc32/v4.21/bin/bin/../../lib/gcc/pic32c/8.3.1/../../../../pic32c/lib/thumb/v6-m/nofp\libc-musl.a(toupper.o)
 .comment       0x00000067       0x2c c:/program files/microchip/xc32/v4.21/bin/bin/../../lib/gcc/pic32c/8.3.1/../../../../pic32c/lib/thumb/v6-m/nofp\libc-musl.a(__environ.o)
 .comment       0x00000067       0x2c c:/program files/microchip/xc32/v4.21/bin/bin/../../lib/gcc/pic32c/8.3.1/../../../../pic32c/lib/thumb/v6-m/nofp\libc-musl.a(__errno_location.o)
 .comment       0x00000067       0x2c c:/program files/microchip/xc32/v4.21/bin/bin/../../lib/gcc/pic32c/8.3.1/../../../../pic32c/lib/thumb/v6-m/nofp\libc-musl.a(__int_vsprintf.o)
 .comment       0x00000067       0x2c c:/program files/microchip/xc32/v4.21/bin/bin/../../lib/gcc/pic32c/8.3.1/../../../../pic32c/lib/thumb/v6-m/nofp\libc-musl.a(__pop_float.o)
 .comment       0x00000067       0x2c c:/program files/microchip/xc32/v4.21/bin/bin/../../lib/gcc/pic32c/8.3.1/../../../../pic32c/lib/thumb/v6-m/nofp\libc-musl.a(__int_vsnprintf.o)
 .comment       0x00000067       0x2c c:/program files/microchip/xc32/v4.21/bin/bin/../../lib/gcc/pic32c/8.3.1/../../../../pic32c/lib/thumb/v6-m/nofp\libc-musl.a(__int_vfprintf.o)
 .comment       0x00000067       0x2c c:/program files/microchip/xc32/v4.21/bin/bin/../../lib/gcc/pic32c/8.3.1/thumb/v6-m/nofp\libgcc.a(_udivmoddi4.o)

.debug_info     0x00000000    0x134e6
 .debug_info    0x00000000      0xaf9 build/default/production/_ext/1984496892/plib_clock.o
 .debug_info    0x00000af9      0x5e9 build/default/production/_ext/1986646378/plib_evsys.o
 .debug_info    0x000010e2      0xb14 build/default/production/_ext/1865468468/plib_nvic.o
 .debug_info    0x00001bf6      0xbc5 build/default/production/_ext/1593096446/plib_nvmctrl.o
 .debug_info    0x000027bb      0xd52 build/default/production/_ext/1865521619/plib_port.o
 .debug_info    0x0000350d      0xb52 build/default/production/_ext/60180175/plib_rtc_timer.o
 .debug_info    0x0000405f     0x1826 build/default/production/_ext/504274921/plib_sercom4_usart.o
 .debug_info    0x00005885      0xf92 build/default/production/_ext/1662611032/kronocommuart_sam.o
 .debug_info    0x00006817     0x145c build/default/production/_ext/1662611032/kronocommadaptor.o
 .debug_info    0x00007c73     0x2b54 build/default/production/_ext/162237794/touch.o
 .debug_info    0x0000a7c7      0x659 build/default/production/_ext/1171490990/initialization.o
 .debug_info    0x0000ae20      0x8be build/default/production/_ext/1171490990/interrupts.o
 .debug_info    0x0000b6de      0x331 build/default/production/_ext/1171490990/exceptions.o
 .debug_info    0x0000ba0f      0x492 build/default/production/_ext/1171490990/startup_xc32.o
 .debug_info    0x0000bea1      0x326 build/default/production/_ext/1360937237/main.o
 .debug_info    0x0000c1c7      0x298 c:/program files/microchip/xc32/v4.21/bin/bin/../../lib/gcc/pic32c/8.3.1/../../../../pic32c/lib/thumb/v6-m/nofp\libpic32c.a(data_init_wrapper.o)
 .debug_info    0x0000c45f      0x299 c:/program files/microchip/xc32/v4.21/bin/bin/../../lib/gcc/pic32c/8.3.1/../../../../pic32c/lib/thumb/v6-m/nofp\libpic32c.a(data_init_0_1.o)
 .debug_info    0x0000c6f8      0x617 c:/program files/microchip/xc32/v4.21/bin/bin/../../lib/gcc/pic32c/8.3.1/../../../../pic32c/lib/thumb/v6-m/nofp\libc-musl.a(__libc_start_main.o)
 .debug_info    0x0000cd0f      0x529 c:/program files/microchip/xc32/v4.21/bin/bin/../../lib/gcc/pic32c/8.3.1/../../../../pic32c/lib/thumb/v6-m/nofp\libc-musl.a(libc.o)
 .debug_info    0x0000d238      0x473 c:/program files/microchip/xc32/v4.21/bin/bin/../../lib/gcc/pic32c/8.3.1/../../../../pic32c/lib/thumb/v6-m/nofp\libc-musl.a(__sio_sprintf_doux.o)
 .debug_info    0x0000d6ab      0x5b6 c:/program files/microchip/xc32/v4.21/bin/bin/../../lib/gcc/pic32c/8.3.1/../../../../pic32c/lib/thumb/v6-m/nofp\libc-musl.a(__fmt_d.o)
 .debug_info    0x0000dc61      0x587 c:/program files/microchip/xc32/v4.21/bin/bin/../../lib/gcc/pic32c/8.3.1/../../../../pic32c/lib/thumb/v6-m/nofp\libc-musl.a(__fmt_o.o)
 .debug_info    0x0000e1e8      0x572 c:/program files/microchip/xc32/v4.21/bin/bin/../../lib/gcc/pic32c/8.3.1/../../../../pic32c/lib/thumb/v6-m/nofp\libc-musl.a(__fmt_s.o)
 .debug_info    0x0000e75a      0x64a c:/program files/microchip/xc32/v4.21/bin/bin/../../lib/gcc/pic32c/8.3.1/../../../../pic32c/lib/thumb/v6-m/nofp\libc-musl.a(__fmt_u.o)
 .debug_info    0x0000eda4      0x5bb c:/program files/microchip/xc32/v4.21/bin/bin/../../lib/gcc/pic32c/8.3.1/../../../../pic32c/lib/thumb/v6-m/nofp\libc-musl.a(__fmt_x.o)
 .debug_info    0x0000f35f      0x3f5 c:/program files/microchip/xc32/v4.21/bin/bin/../../lib/gcc/pic32c/8.3.1/../../../../pic32c/lib/thumb/v6-m/nofp\libc-musl.a(__pop_int.o)
 .debug_info    0x0000f754      0x401 c:/program files/microchip/xc32/v4.21/bin/bin/../../lib/gcc/pic32c/8.3.1/../../../../pic32c/lib/thumb/v6-m/nofp\libc-musl.a(__pop_ptr.o)
 .debug_info    0x0000fb55      0xd38 c:/program files/microchip/xc32/v4.21/bin/bin/../../lib/gcc/pic32c/8.3.1/../../../../pic32c/lib/thumb/v6-m/nofp\libc-musl.a(__printf_core.o)
 .debug_info    0x0001088d      0x2ef c:/program files/microchip/xc32/v4.21/bin/bin/../../lib/gcc/pic32c/8.3.1/../../../../pic32c/lib/thumb/v6-m/nofp\libc-musl.a(atoi.o)
 .debug_info    0x00010b7c      0x2e5 c:/program files/microchip/xc32/v4.21/bin/bin/../../lib/gcc/pic32c/8.3.1/../../../../pic32c/lib/thumb/v6-m/nofp\libc-musl.a(memcpy.o)
 .debug_info    0x00010e61      0x2a9 c:/program files/microchip/xc32/v4.21/bin/bin/../../lib/gcc/pic32c/8.3.1/../../../../pic32c/lib/thumb/v6-m/nofp\libc-musl.a(memset.o)
 .debug_info    0x0001110a      0x29a c:/program files/microchip/xc32/v4.21/bin/bin/../../lib/gcc/pic32c/8.3.1/../../../../pic32c/lib/thumb/v6-m/nofp\libc-musl.a(strlen.o)
 .debug_info    0x000113a4      0x34d c:/program files/microchip/xc32/v4.21/bin/bin/../../lib/gcc/pic32c/8.3.1/../../../../pic32c/lib/thumb/v6-m/nofp\libc-musl.a(tolower.o)
 .debug_info    0x000116f1      0x34d c:/program files/microchip/xc32/v4.21/bin/bin/../../lib/gcc/pic32c/8.3.1/../../../../pic32c/lib/thumb/v6-m/nofp\libc-musl.a(toupper.o)
 .debug_info    0x00011a3e      0x2a3 c:/program files/microchip/xc32/v4.21/bin/bin/../../lib/gcc/pic32c/8.3.1/../../../../pic32c/lib/thumb/v6-m/nofp\libc-musl.a(__environ.o)
 .debug_info    0x00011ce1      0x267 c:/program files/microchip/xc32/v4.21/bin/bin/../../lib/gcc/pic32c/8.3.1/../../../../pic32c/lib/thumb/v6-m/nofp\libc-musl.a(__errno_location.o)
 .debug_info    0x00011f48      0x398 c:/program files/microchip/xc32/v4.21/bin/bin/../../lib/gcc/pic32c/8.3.1/../../../../pic32c/lib/thumb/v6-m/nofp\libc-musl.a(__int_vsprintf.o)
 .debug_info    0x000122e0      0x3d1 c:/program files/microchip/xc32/v4.21/bin/bin/../../lib/gcc/pic32c/8.3.1/../../../../pic32c/lib/thumb/v6-m/nofp\libc-musl.a(__pop_float.o)
 .debug_info    0x000126b1      0x49a c:/program files/microchip/xc32/v4.21/bin/bin/../../lib/gcc/pic32c/8.3.1/../../../../pic32c/lib/thumb/v6-m/nofp\libc-musl.a(__int_vsnprintf.o)
 .debug_info    0x00012b4b      0x475 c:/program files/microchip/xc32/v4.21/bin/bin/../../lib/gcc/pic32c/8.3.1/../../../../pic32c/lib/thumb/v6-m/nofp\libc-musl.a(__int_vfprintf.o)
 .debug_info    0x00012fc0       0x26 c:/program files/microchip/xc32/v4.21/bin/bin/../../lib/gcc/pic32c/8.3.1/thumb/v6-m/nofp\libgcc.a(_thumb1_case_uhi.o)
 .debug_info    0x00012fe6       0x26 c:/program files/microchip/xc32/v4.21/bin/bin/../../lib/gcc/pic32c/8.3.1/thumb/v6-m/nofp\libgcc.a(_udivsi3.o)
 .debug_info    0x0001300c       0x26 c:/program files/microchip/xc32/v4.21/bin/bin/../../lib/gcc/pic32c/8.3.1/thumb/v6-m/nofp\libgcc.a(_dvmd_tls.o)
 .debug_info    0x00013032       0x26 c:/program files/microchip/xc32/v4.21/bin/bin/../../lib/gcc/pic32c/8.3.1/thumb/v6-m/nofp\libgcc.a(_aeabi_uldivmod.o)
 .debug_info    0x00013058      0x3f6 c:/program files/microchip/xc32/v4.21/bin/bin/../../lib/gcc/pic32c/8.3.1/thumb/v6-m/nofp\libgcc.a(_udivmoddi4.o)
 .debug_info    0x0001344e       0x26 c:/program files/microchip/xc32/v4.21/bin/bin/../../lib/gcc/pic32c/8.3.1/thumb/v6-m/nofp\libgcc.a(_lshrdi3.o)
 .debug_info    0x00013474       0x26 c:/program files/microchip/xc32/v4.21/bin/bin/../../lib/gcc/pic32c/8.3.1/thumb/v6-m/nofp\libgcc.a(_ashldi3.o)
 .debug_info    0x0001349a       0x26 c:/program files/microchip/xc32/v4.21/bin/bin/../../lib/gcc/pic32c/8.3.1/thumb/v6-m/nofp\libgcc.a(_clzdi2.o)
 .debug_info    0x000134c0       0x26 c:/program files/microchip/xc32/v4.21/bin/bin/../../lib/gcc/pic32c/8.3.1/thumb/v6-m/nofp\libgcc.a(_clzsi2.o)

.debug_abbrev   0x00000000     0x2f0d
 .debug_abbrev  0x00000000      0x14f build/default/production/_ext/1984496892/plib_clock.o
 .debug_abbrev  0x0000014f      0x10e build/default/production/_ext/1986646378/plib_evsys.o
 .debug_abbrev  0x0000025d      0x1fd build/default/production/_ext/1865468468/plib_nvic.o
 .debug_abbrev  0x0000045a      0x1ba build/default/production/_ext/1593096446/plib_nvmctrl.o
 .debug_abbrev  0x00000614      0x1d6 build/default/production/_ext/1865521619/plib_port.o
 .debug_abbrev  0x000007ea      0x189 build/default/production/_ext/60180175/plib_rtc_timer.o
 .debug_abbrev  0x00000973      0x39d build/default/production/_ext/504274921/plib_sercom4_usart.o
 .debug_abbrev  0x00000d10      0x206 build/default/production/_ext/1662611032/kronocommuart_sam.o
 .debug_abbrev  0x00000f16      0x21e build/default/production/_ext/1662611032/kronocommadaptor.o
 .debug_abbrev  0x00001134      0x34f build/default/production/_ext/162237794/touch.o
 .debug_abbrev  0x00001483       0xfa build/default/production/_ext/1171490990/initialization.o
 .debug_abbrev  0x0000157d       0xb5 build/default/production/_ext/1171490990/interrupts.o
 .debug_abbrev  0x00001632       0x3e build/default/production/_ext/1171490990/exceptions.o
 .debug_abbrev  0x00001670      0x110 build/default/production/_ext/1171490990/startup_xc32.o
 .debug_abbrev  0x00001780       0x77 build/default/production/_ext/1360937237/main.o
 .debug_abbrev  0x000017f7       0x2e c:/program files/microchip/xc32/v4.21/bin/bin/../../lib/gcc/pic32c/8.3.1/../../../../pic32c/lib/thumb/v6-m/nofp\libpic32c.a(data_init_wrapper.o)
 .debug_abbrev  0x00001825       0x2e c:/program files/microchip/xc32/v4.21/bin/bin/../../lib/gcc/pic32c/8.3.1/../../../../pic32c/lib/thumb/v6-m/nofp\libpic32c.a(data_init_0_1.o)
 .debug_abbrev  0x00001853      0x117 c:/program files/microchip/xc32/v4.21/bin/bin/../../lib/gcc/pic32c/8.3.1/../../../../pic32c/lib/thumb/v6-m/nofp\libc-musl.a(__libc_start_main.o)
 .debug_abbrev  0x0000196a       0xb8 c:/program files/microchip/xc32/v4.21/bin/bin/../../lib/gcc/pic32c/8.3.1/../../../../pic32c/lib/thumb/v6-m/nofp\libc-musl.a(libc.o)
 .debug_abbrev  0x00001a22      0x120 c:/program files/microchip/xc32/v4.21/bin/bin/../../lib/gcc/pic32c/8.3.1/../../../../pic32c/lib/thumb/v6-m/nofp\libc-musl.a(__sio_sprintf_doux.o)
 .debug_abbrev  0x00001b42      0x120 c:/program files/microchip/xc32/v4.21/bin/bin/../../lib/gcc/pic32c/8.3.1/../../../../pic32c/lib/thumb/v6-m/nofp\libc-musl.a(__fmt_d.o)
 .debug_abbrev  0x00001c62      0x120 c:/program files/microchip/xc32/v4.21/bin/bin/../../lib/gcc/pic32c/8.3.1/../../../../pic32c/lib/thumb/v6-m/nofp\libc-musl.a(__fmt_o.o)
 .debug_abbrev  0x00001d82      0x11d c:/program files/microchip/xc32/v4.21/bin/bin/../../lib/gcc/pic32c/8.3.1/../../../../pic32c/lib/thumb/v6-m/nofp\libc-musl.a(__fmt_s.o)
 .debug_abbrev  0x00001e9f      0x174 c:/program files/microchip/xc32/v4.21/bin/bin/../../lib/gcc/pic32c/8.3.1/../../../../pic32c/lib/thumb/v6-m/nofp\libc-musl.a(__fmt_u.o)
 .debug_abbrev  0x00002013      0x10f c:/program files/microchip/xc32/v4.21/bin/bin/../../lib/gcc/pic32c/8.3.1/../../../../pic32c/lib/thumb/v6-m/nofp\libc-musl.a(__fmt_x.o)
 .debug_abbrev  0x00002122       0xbd c:/program files/microchip/xc32/v4.21/bin/bin/../../lib/gcc/pic32c/8.3.1/../../../../pic32c/lib/thumb/v6-m/nofp\libc-musl.a(__pop_int.o)
 .debug_abbrev  0x000021df       0xbd c:/program files/microchip/xc32/v4.21/bin/bin/../../lib/gcc/pic32c/8.3.1/../../../../pic32c/lib/thumb/v6-m/nofp\libc-musl.a(__pop_ptr.o)
 .debug_abbrev  0x0000229c      0x2be c:/program files/microchip/xc32/v4.21/bin/bin/../../lib/gcc/pic32c/8.3.1/../../../../pic32c/lib/thumb/v6-m/nofp\libc-musl.a(__printf_core.o)
 .debug_abbrev  0x0000255a       0xbb c:/program files/microchip/xc32/v4.21/bin/bin/../../lib/gcc/pic32c/8.3.1/../../../../pic32c/lib/thumb/v6-m/nofp\libc-musl.a(atoi.o)
 .debug_abbrev  0x00002615       0x9c c:/program files/microchip/xc32/v4.21/bin/bin/../../lib/gcc/pic32c/8.3.1/../../../../pic32c/lib/thumb/v6-m/nofp\libc-musl.a(memcpy.o)
 .debug_abbrev  0x000026b1       0x97 c:/program files/microchip/xc32/v4.21/bin/bin/../../lib/gcc/pic32c/8.3.1/../../../../pic32c/lib/thumb/v6-m/nofp\libc-musl.a(memset.o)
 .debug_abbrev  0x00002748       0x86 c:/program files/microchip/xc32/v4.21/bin/bin/../../lib/gcc/pic32c/8.3.1/../../../../pic32c/lib/thumb/v6-m/nofp\libc-musl.a(strlen.o)
 .debug_abbrev  0x000027ce       0xe9 c:/program files/microchip/xc32/v4.21/bin/bin/../../lib/gcc/pic32c/8.3.1/../../../../pic32c/lib/thumb/v6-m/nofp\libc-musl.a(tolower.o)
 .debug_abbrev  0x000028b7       0xe9 c:/program files/microchip/xc32/v4.21/bin/bin/../../lib/gcc/pic32c/8.3.1/../../../../pic32c/lib/thumb/v6-m/nofp\libc-musl.a(toupper.o)
 .debug_abbrev  0x000029a0       0x57 c:/program files/microchip/xc32/v4.21/bin/bin/../../lib/gcc/pic32c/8.3.1/../../../../pic32c/lib/thumb/v6-m/nofp\libc-musl.a(__environ.o)
 .debug_abbrev  0x000029f7       0x2e c:/program files/microchip/xc32/v4.21/bin/bin/../../lib/gcc/pic32c/8.3.1/../../../../pic32c/lib/thumb/v6-m/nofp\libc-musl.a(__errno_location.o)
 .debug_abbrev  0x00002a25       0xc0 c:/program files/microchip/xc32/v4.21/bin/bin/../../lib/gcc/pic32c/8.3.1/../../../../pic32c/lib/thumb/v6-m/nofp\libc-musl.a(__int_vsprintf.o)
 .debug_abbrev  0x00002ae5       0xbd c:/program files/microchip/xc32/v4.21/bin/bin/../../lib/gcc/pic32c/8.3.1/../../../../pic32c/lib/thumb/v6-m/nofp\libc-musl.a(__pop_float.o)
 .debug_abbrev  0x00002ba2      0x127 c:/program files/microchip/xc32/v4.21/bin/bin/../../lib/gcc/pic32c/8.3.1/../../../../pic32c/lib/thumb/v6-m/nofp\libc-musl.a(__int_vsnprintf.o)
 .debug_abbrev  0x00002cc9      0x116 c:/program files/microchip/xc32/v4.21/bin/bin/../../lib/gcc/pic32c/8.3.1/../../../../pic32c/lib/thumb/v6-m/nofp\libc-musl.a(__int_vfprintf.o)
 .debug_abbrev  0x00002ddf       0x14 c:/program files/microchip/xc32/v4.21/bin/bin/../../lib/gcc/pic32c/8.3.1/thumb/v6-m/nofp\libgcc.a(_thumb1_case_uhi.o)
 .debug_abbrev  0x00002df3       0x14 c:/program files/microchip/xc32/v4.21/bin/bin/../../lib/gcc/pic32c/8.3.1/thumb/v6-m/nofp\libgcc.a(_udivsi3.o)
 .debug_abbrev  0x00002e07       0x14 c:/program files/microchip/xc32/v4.21/bin/bin/../../lib/gcc/pic32c/8.3.1/thumb/v6-m/nofp\libgcc.a(_dvmd_tls.o)
 .debug_abbrev  0x00002e1b       0x14 c:/program files/microchip/xc32/v4.21/bin/bin/../../lib/gcc/pic32c/8.3.1/thumb/v6-m/nofp\libgcc.a(_aeabi_uldivmod.o)
 .debug_abbrev  0x00002e2f       0x8e c:/program files/microchip/xc32/v4.21/bin/bin/../../lib/gcc/pic32c/8.3.1/thumb/v6-m/nofp\libgcc.a(_udivmoddi4.o)
 .debug_abbrev  0x00002ebd       0x14 c:/program files/microchip/xc32/v4.21/bin/bin/../../lib/gcc/pic32c/8.3.1/thumb/v6-m/nofp\libgcc.a(_lshrdi3.o)
 .debug_abbrev  0x00002ed1       0x14 c:/program files/microchip/xc32/v4.21/bin/bin/../../lib/gcc/pic32c/8.3.1/thumb/v6-m/nofp\libgcc.a(_ashldi3.o)
 .debug_abbrev  0x00002ee5       0x14 c:/program files/microchip/xc32/v4.21/bin/bin/../../lib/gcc/pic32c/8.3.1/thumb/v6-m/nofp\libgcc.a(_clzdi2.o)
 .debug_abbrev  0x00002ef9       0x14 c:/program files/microchip/xc32/v4.21/bin/bin/../../lib/gcc/pic32c/8.3.1/thumb/v6-m/nofp\libgcc.a(_clzsi2.o)

.debug_loc      0x00000000     0x4268
 .debug_loc     0x00000000       0x45 build/default/production/_ext/1984496892/plib_clock.o
 .debug_loc     0x00000045       0xc8 build/default/production/_ext/1986646378/plib_evsys.o
 .debug_loc     0x0000010d      0x114 build/default/production/_ext/1865468468/plib_nvic.o
 .debug_loc     0x00000221      0x689 build/default/production/_ext/1593096446/plib_nvmctrl.o
 .debug_loc     0x000008aa      0x226 build/default/production/_ext/1865521619/plib_port.o
 .debug_loc     0x00000ad0       0x6a build/default/production/_ext/60180175/plib_rtc_timer.o
 .debug_loc     0x00000b3a      0x666 build/default/production/_ext/504274921/plib_sercom4_usart.o
 .debug_loc     0x000011a0      0x4da build/default/production/_ext/1662611032/kronocommuart_sam.o
 .debug_loc     0x0000167a      0x530 build/default/production/_ext/1662611032/kronocommadaptor.o
 .debug_loc     0x00001baa      0x403 build/default/production/_ext/162237794/touch.o
 .debug_loc     0x00001fad       0x45 build/default/production/_ext/1171490990/initialization.o
 .debug_loc     0x00001ff2       0x20 build/default/production/_ext/1171490990/startup_xc32.o
 .debug_loc     0x00002012       0x20 build/default/production/_ext/1360937237/main.o
 .debug_loc     0x00002032       0x14 c:/program files/microchip/xc32/v4.21/bin/bin/../../lib/gcc/pic32c/8.3.1/../../../../pic32c/lib/thumb/v6-m/nofp\libpic32c.a(data_init_wrapper.o)
 .debug_loc     0x00002046       0x14 c:/program files/microchip/xc32/v4.21/bin/bin/../../lib/gcc/pic32c/8.3.1/../../../../pic32c/lib/thumb/v6-m/nofp\libpic32c.a(data_init_0_1.o)
 .debug_loc     0x0000205a       0x5e c:/program files/microchip/xc32/v4.21/bin/bin/../../lib/gcc/pic32c/8.3.1/../../../../pic32c/lib/thumb/v6-m/nofp\libc-musl.a(__libc_start_main.o)
 .debug_loc     0x000020b8       0x86 c:/program files/microchip/xc32/v4.21/bin/bin/../../lib/gcc/pic32c/8.3.1/../../../../pic32c/lib/thumb/v6-m/nofp\libc-musl.a(__sio_sprintf_doux.o)
 .debug_loc     0x0000213e      0x2a6 c:/program files/microchip/xc32/v4.21/bin/bin/../../lib/gcc/pic32c/8.3.1/../../../../pic32c/lib/thumb/v6-m/nofp\libc-musl.a(__fmt_d.o)
 .debug_loc     0x000023e4      0x12d c:/program files/microchip/xc32/v4.21/bin/bin/../../lib/gcc/pic32c/8.3.1/../../../../pic32c/lib/thumb/v6-m/nofp\libc-musl.a(__fmt_o.o)
 .debug_loc     0x00002511      0x144 c:/program files/microchip/xc32/v4.21/bin/bin/../../lib/gcc/pic32c/8.3.1/../../../../pic32c/lib/thumb/v6-m/nofp\libc-musl.a(__fmt_s.o)
 .debug_loc     0x00002655      0x2e3 c:/program files/microchip/xc32/v4.21/bin/bin/../../lib/gcc/pic32c/8.3.1/../../../../pic32c/lib/thumb/v6-m/nofp\libc-musl.a(__fmt_u.o)
 .debug_loc     0x00002938      0x3be c:/program files/microchip/xc32/v4.21/bin/bin/../../lib/gcc/pic32c/8.3.1/../../../../pic32c/lib/thumb/v6-m/nofp\libc-musl.a(__fmt_x.o)
 .debug_loc     0x00002cf6      0x34c c:/program files/microchip/xc32/v4.21/bin/bin/../../lib/gcc/pic32c/8.3.1/../../../../pic32c/lib/thumb/v6-m/nofp\libc-musl.a(__pop_int.o)
 .debug_loc     0x00003042      0x1fe c:/program files/microchip/xc32/v4.21/bin/bin/../../lib/gcc/pic32c/8.3.1/../../../../pic32c/lib/thumb/v6-m/nofp\libc-musl.a(__pop_ptr.o)
 .debug_loc     0x00003240      0x6bd c:/program files/microchip/xc32/v4.21/bin/bin/../../lib/gcc/pic32c/8.3.1/../../../../pic32c/lib/thumb/v6-m/nofp\libc-musl.a(__printf_core.o)
 .debug_loc     0x000038fd       0xdc c:/program files/microchip/xc32/v4.21/bin/bin/../../lib/gcc/pic32c/8.3.1/../../../../pic32c/lib/thumb/v6-m/nofp\libc-musl.a(atoi.o)
 .debug_loc     0x000039d9      0x109 c:/program files/microchip/xc32/v4.21/bin/bin/../../lib/gcc/pic32c/8.3.1/../../../../pic32c/lib/thumb/v6-m/nofp\libc-musl.a(memcpy.o)
 .debug_loc     0x00003ae2       0x80 c:/program files/microchip/xc32/v4.21/bin/bin/../../lib/gcc/pic32c/8.3.1/../../../../pic32c/lib/thumb/v6-m/nofp\libc-musl.a(memset.o)
 .debug_loc     0x00003b62       0x54 c:/program files/microchip/xc32/v4.21/bin/bin/../../lib/gcc/pic32c/8.3.1/../../../../pic32c/lib/thumb/v6-m/nofp\libc-musl.a(strlen.o)
 .debug_loc     0x00003bb6       0x8f c:/program files/microchip/xc32/v4.21/bin/bin/../../lib/gcc/pic32c/8.3.1/../../../../pic32c/lib/thumb/v6-m/nofp\libc-musl.a(tolower.o)
 .debug_loc     0x00003c45       0x8f c:/program files/microchip/xc32/v4.21/bin/bin/../../lib/gcc/pic32c/8.3.1/../../../../pic32c/lib/thumb/v6-m/nofp\libc-musl.a(toupper.o)
 .debug_loc     0x00003cd4       0x8c c:/program files/microchip/xc32/v4.21/bin/bin/../../lib/gcc/pic32c/8.3.1/../../../../pic32c/lib/thumb/v6-m/nofp\libc-musl.a(__int_vsprintf.o)
 .debug_loc     0x00003d60       0x6f c:/program files/microchip/xc32/v4.21/bin/bin/../../lib/gcc/pic32c/8.3.1/../../../../pic32c/lib/thumb/v6-m/nofp\libc-musl.a(__pop_float.o)
 .debug_loc     0x00003dcf      0x102 c:/program files/microchip/xc32/v4.21/bin/bin/../../lib/gcc/pic32c/8.3.1/../../../../pic32c/lib/thumb/v6-m/nofp\libc-musl.a(__int_vsnprintf.o)
 .debug_loc     0x00003ed1       0xb0 c:/program files/microchip/xc32/v4.21/bin/bin/../../lib/gcc/pic32c/8.3.1/../../../../pic32c/lib/thumb/v6-m/nofp\libc-musl.a(__int_vfprintf.o)
 .debug_loc     0x00003f81      0x2e7 c:/program files/microchip/xc32/v4.21/bin/bin/../../lib/gcc/pic32c/8.3.1/thumb/v6-m/nofp\libgcc.a(_udivmoddi4.o)

.debug_aranges  0x00000000      0x978
 .debug_aranges
                0x00000000       0x20 build/default/production/_ext/1984496892/plib_clock.o
 .debug_aranges
                0x00000020       0x40 build/default/production/_ext/1986646378/plib_evsys.o
 .debug_aranges
                0x00000060       0x38 build/default/production/_ext/1865468468/plib_nvic.o
 .debug_aranges
                0x00000098       0xa0 build/default/production/_ext/1593096446/plib_nvmctrl.o
 .debug_aranges
                0x00000138       0x70 build/default/production/_ext/1865521619/plib_port.o
 .debug_aranges
                0x000001a8       0x88 build/default/production/_ext/60180175/plib_rtc_timer.o
 .debug_aranges
                0x00000230       0xb8 build/default/production/_ext/504274921/plib_sercom4_usart.o
 .debug_aranges
                0x000002e8       0x68 build/default/production/_ext/1662611032/kronocommuart_sam.o
 .debug_aranges
                0x00000350       0x50 build/default/production/_ext/1662611032/kronocommadaptor.o
 .debug_aranges
                0x000003a0       0xa8 build/default/production/_ext/162237794/touch.o
 .debug_aranges
                0x00000448       0x20 build/default/production/_ext/1171490990/initialization.o
 .debug_aranges
                0x00000468       0x20 build/default/production/_ext/1171490990/interrupts.o
 .debug_aranges
                0x00000488       0x28 build/default/production/_ext/1171490990/exceptions.o
 .debug_aranges
                0x000004b0       0x28 build/default/production/_ext/1171490990/startup_xc32.o
 .debug_aranges
                0x000004d8       0x20 build/default/production/_ext/1360937237/main.o
 .debug_aranges
                0x000004f8       0x20 c:/program files/microchip/xc32/v4.21/bin/bin/../../lib/gcc/pic32c/8.3.1/../../../../pic32c/lib/thumb/v6-m/nofp\libpic32c.a(data_init_wrapper.o)
 .debug_aranges
                0x00000518       0x20 c:/program files/microchip/xc32/v4.21/bin/bin/../../lib/gcc/pic32c/8.3.1/../../../../pic32c/lib/thumb/v6-m/nofp\libpic32c.a(data_init_0_1.o)
 .debug_aranges
                0x00000538       0x28 c:/program files/microchip/xc32/v4.21/bin/bin/../../lib/gcc/pic32c/8.3.1/../../../../pic32c/lib/thumb/v6-m/nofp\libc-musl.a(__libc_start_main.o)
 .debug_aranges
                0x00000560       0x18 c:/program files/microchip/xc32/v4.21/bin/bin/../../lib/gcc/pic32c/8.3.1/../../../../pic32c/lib/thumb/v6-m/nofp\libc-musl.a(libc.o)
 .debug_aranges
                0x00000578       0x28 c:/program files/microchip/xc32/v4.21/bin/bin/../../lib/gcc/pic32c/8.3.1/../../../../pic32c/lib/thumb/v6-m/nofp\libc-musl.a(__sio_sprintf_doux.o)
 .debug_aranges
                0x000005a0       0x20 c:/program files/microchip/xc32/v4.21/bin/bin/../../lib/gcc/pic32c/8.3.1/../../../../pic32c/lib/thumb/v6-m/nofp\libc-musl.a(__fmt_d.o)
 .debug_aranges
                0x000005c0       0x20 c:/program files/microchip/xc32/v4.21/bin/bin/../../lib/gcc/pic32c/8.3.1/../../../../pic32c/lib/thumb/v6-m/nofp\libc-musl.a(__fmt_o.o)
 .debug_aranges
                0x000005e0       0x20 c:/program files/microchip/xc32/v4.21/bin/bin/../../lib/gcc/pic32c/8.3.1/../../../../pic32c/lib/thumb/v6-m/nofp\libc-musl.a(__fmt_s.o)
 .debug_aranges
                0x00000600       0x28 c:/program files/microchip/xc32/v4.21/bin/bin/../../lib/gcc/pic32c/8.3.1/../../../../pic32c/lib/thumb/v6-m/nofp\libc-musl.a(__fmt_u.o)
 .debug_aranges
                0x00000628       0x20 c:/program files/microchip/xc32/v4.21/bin/bin/../../lib/gcc/pic32c/8.3.1/../../../../pic32c/lib/thumb/v6-m/nofp\libc-musl.a(__fmt_x.o)
 .debug_aranges
                0x00000648       0x20 c:/program files/microchip/xc32/v4.21/bin/bin/../../lib/gcc/pic32c/8.3.1/../../../../pic32c/lib/thumb/v6-m/nofp\libc-musl.a(__pop_int.o)
 .debug_aranges
                0x00000668       0x20 c:/program files/microchip/xc32/v4.21/bin/bin/../../lib/gcc/pic32c/8.3.1/../../../../pic32c/lib/thumb/v6-m/nofp\libc-musl.a(__pop_ptr.o)
 .debug_aranges
                0x00000688       0x50 c:/program files/microchip/xc32/v4.21/bin/bin/../../lib/gcc/pic32c/8.3.1/../../../../pic32c/lib/thumb/v6-m/nofp\libc-musl.a(__printf_core.o)
 .debug_aranges
                0x000006d8       0x20 c:/program files/microchip/xc32/v4.21/bin/bin/../../lib/gcc/pic32c/8.3.1/../../../../pic32c/lib/thumb/v6-m/nofp\libc-musl.a(atoi.o)
 .debug_aranges
                0x000006f8       0x20 c:/program files/microchip/xc32/v4.21/bin/bin/../../lib/gcc/pic32c/8.3.1/../../../../pic32c/lib/thumb/v6-m/nofp\libc-musl.a(memcpy.o)
 .debug_aranges
                0x00000718       0x20 c:/program files/microchip/xc32/v4.21/bin/bin/../../lib/gcc/pic32c/8.3.1/../../../../pic32c/lib/thumb/v6-m/nofp\libc-musl.a(memset.o)
 .debug_aranges
                0x00000738       0x20 c:/program files/microchip/xc32/v4.21/bin/bin/../../lib/gcc/pic32c/8.3.1/../../../../pic32c/lib/thumb/v6-m/nofp\libc-musl.a(strlen.o)
 .debug_aranges
                0x00000758       0x28 c:/program files/microchip/xc32/v4.21/bin/bin/../../lib/gcc/pic32c/8.3.1/../../../../pic32c/lib/thumb/v6-m/nofp\libc-musl.a(tolower.o)
 .debug_aranges
                0x00000780       0x28 c:/program files/microchip/xc32/v4.21/bin/bin/../../lib/gcc/pic32c/8.3.1/../../../../pic32c/lib/thumb/v6-m/nofp\libc-musl.a(toupper.o)
 .debug_aranges
                0x000007a8       0x18 c:/program files/microchip/xc32/v4.21/bin/bin/../../lib/gcc/pic32c/8.3.1/../../../../pic32c/lib/thumb/v6-m/nofp\libc-musl.a(__environ.o)
 .debug_aranges
                0x000007c0       0x18 c:/program files/microchip/xc32/v4.21/bin/bin/../../lib/gcc/pic32c/8.3.1/../../../../pic32c/lib/thumb/v6-m/nofp\libc-musl.a(__errno_location.o)
 .debug_aranges
                0x000007d8       0x20 c:/program files/microchip/xc32/v4.21/bin/bin/../../lib/gcc/pic32c/8.3.1/../../../../pic32c/lib/thumb/v6-m/nofp\libc-musl.a(__int_vsprintf.o)
 .debug_aranges
                0x000007f8       0x20 c:/program files/microchip/xc32/v4.21/bin/bin/../../lib/gcc/pic32c/8.3.1/../../../../pic32c/lib/thumb/v6-m/nofp\libc-musl.a(__pop_float.o)
 .debug_aranges
                0x00000818       0x20 c:/program files/microchip/xc32/v4.21/bin/bin/../../lib/gcc/pic32c/8.3.1/../../../../pic32c/lib/thumb/v6-m/nofp\libc-musl.a(__int_vsnprintf.o)
 .debug_aranges
                0x00000838       0x20 c:/program files/microchip/xc32/v4.21/bin/bin/../../lib/gcc/pic32c/8.3.1/../../../../pic32c/lib/thumb/v6-m/nofp\libc-musl.a(__int_vfprintf.o)
 .debug_aranges
                0x00000858       0x20 c:/program files/microchip/xc32/v4.21/bin/bin/../../lib/gcc/pic32c/8.3.1/thumb/v6-m/nofp\libgcc.a(_thumb1_case_uhi.o)
 .debug_aranges
                0x00000878       0x20 c:/program files/microchip/xc32/v4.21/bin/bin/../../lib/gcc/pic32c/8.3.1/thumb/v6-m/nofp\libgcc.a(_udivsi3.o)
 .debug_aranges
                0x00000898       0x20 c:/program files/microchip/xc32/v4.21/bin/bin/../../lib/gcc/pic32c/8.3.1/thumb/v6-m/nofp\libgcc.a(_dvmd_tls.o)
 .debug_aranges
                0x000008b8       0x20 c:/program files/microchip/xc32/v4.21/bin/bin/../../lib/gcc/pic32c/8.3.1/thumb/v6-m/nofp\libgcc.a(_aeabi_uldivmod.o)
 .debug_aranges
                0x000008d8       0x20 c:/program files/microchip/xc32/v4.21/bin/bin/../../lib/gcc/pic32c/8.3.1/thumb/v6-m/nofp\libgcc.a(_udivmoddi4.o)
 .debug_aranges
                0x000008f8       0x20 c:/program files/microchip/xc32/v4.21/bin/bin/../../lib/gcc/pic32c/8.3.1/thumb/v6-m/nofp\libgcc.a(_lshrdi3.o)
 .debug_aranges
                0x00000918       0x20 c:/program files/microchip/xc32/v4.21/bin/bin/../../lib/gcc/pic32c/8.3.1/thumb/v6-m/nofp\libgcc.a(_ashldi3.o)
 .debug_aranges
                0x00000938       0x20 c:/program files/microchip/xc32/v4.21/bin/bin/../../lib/gcc/pic32c/8.3.1/thumb/v6-m/nofp\libgcc.a(_clzdi2.o)
 .debug_aranges
                0x00000958       0x20 c:/program files/microchip/xc32/v4.21/bin/bin/../../lib/gcc/pic32c/8.3.1/thumb/v6-m/nofp\libgcc.a(_clzsi2.o)

.debug_ranges   0x00000000      0x638
 .debug_ranges  0x00000000       0x10 build/default/production/_ext/1984496892/plib_clock.o
 .debug_ranges  0x00000010       0x30 build/default/production/_ext/1986646378/plib_evsys.o
 .debug_ranges  0x00000040       0x28 build/default/production/_ext/1865468468/plib_nvic.o
 .debug_ranges  0x00000068       0x90 build/default/production/_ext/1593096446/plib_nvmctrl.o
 .debug_ranges  0x000000f8       0x60 build/default/production/_ext/1865521619/plib_port.o
 .debug_ranges  0x00000158       0x78 build/default/production/_ext/60180175/plib_rtc_timer.o
 .debug_ranges  0x000001d0       0xd8 build/default/production/_ext/504274921/plib_sercom4_usart.o
 .debug_ranges  0x000002a8       0x58 build/default/production/_ext/1662611032/kronocommuart_sam.o
 .debug_ranges  0x00000300       0x58 build/default/production/_ext/1662611032/kronocommadaptor.o
 .debug_ranges  0x00000358       0x98 build/default/production/_ext/162237794/touch.o
 .debug_ranges  0x000003f0       0x10 build/default/production/_ext/1171490990/initialization.o
 .debug_ranges  0x00000400       0x10 build/default/production/_ext/1171490990/interrupts.o
 .debug_ranges  0x00000410       0x18 build/default/production/_ext/1171490990/exceptions.o
 .debug_ranges  0x00000428       0x18 build/default/production/_ext/1171490990/startup_xc32.o
 .debug_ranges  0x00000440       0x10 build/default/production/_ext/1360937237/main.o
 .debug_ranges  0x00000450       0x10 c:/program files/microchip/xc32/v4.21/bin/bin/../../lib/gcc/pic32c/8.3.1/../../../../pic32c/lib/thumb/v6-m/nofp\libpic32c.a(data_init_wrapper.o)
 .debug_ranges  0x00000460       0x10 c:/program files/microchip/xc32/v4.21/bin/bin/../../lib/gcc/pic32c/8.3.1/../../../../pic32c/lib/thumb/v6-m/nofp\libpic32c.a(data_init_0_1.o)
 .debug_ranges  0x00000470       0x30 c:/program files/microchip/xc32/v4.21/bin/bin/../../lib/gcc/pic32c/8.3.1/../../../../pic32c/lib/thumb/v6-m/nofp\libc-musl.a(__libc_start_main.o)
 .debug_ranges  0x000004a0       0x18 c:/program files/microchip/xc32/v4.21/bin/bin/../../lib/gcc/pic32c/8.3.1/../../../../pic32c/lib/thumb/v6-m/nofp\libc-musl.a(__sio_sprintf_doux.o)
 .debug_ranges  0x000004b8       0x10 c:/program files/microchip/xc32/v4.21/bin/bin/../../lib/gcc/pic32c/8.3.1/../../../../pic32c/lib/thumb/v6-m/nofp\libc-musl.a(__fmt_d.o)
 .debug_ranges  0x000004c8       0x10 c:/program files/microchip/xc32/v4.21/bin/bin/../../lib/gcc/pic32c/8.3.1/../../../../pic32c/lib/thumb/v6-m/nofp\libc-musl.a(__fmt_o.o)
 .debug_ranges  0x000004d8       0x10 c:/program files/microchip/xc32/v4.21/bin/bin/../../lib/gcc/pic32c/8.3.1/../../../../pic32c/lib/thumb/v6-m/nofp\libc-musl.a(__fmt_s.o)
 .debug_ranges  0x000004e8       0x18 c:/program files/microchip/xc32/v4.21/bin/bin/../../lib/gcc/pic32c/8.3.1/../../../../pic32c/lib/thumb/v6-m/nofp\libc-musl.a(__fmt_u.o)
 .debug_ranges  0x00000500       0x10 c:/program files/microchip/xc32/v4.21/bin/bin/../../lib/gcc/pic32c/8.3.1/../../../../pic32c/lib/thumb/v6-m/nofp\libc-musl.a(__fmt_x.o)
 .debug_ranges  0x00000510       0x10 c:/program files/microchip/xc32/v4.21/bin/bin/../../lib/gcc/pic32c/8.3.1/../../../../pic32c/lib/thumb/v6-m/nofp\libc-musl.a(__pop_int.o)
 .debug_ranges  0x00000520       0x10 c:/program files/microchip/xc32/v4.21/bin/bin/../../lib/gcc/pic32c/8.3.1/../../../../pic32c/lib/thumb/v6-m/nofp\libc-musl.a(__pop_ptr.o)
 .debug_ranges  0x00000530       0x58 c:/program files/microchip/xc32/v4.21/bin/bin/../../lib/gcc/pic32c/8.3.1/../../../../pic32c/lib/thumb/v6-m/nofp\libc-musl.a(__printf_core.o)
 .debug_ranges  0x00000588       0x10 c:/program files/microchip/xc32/v4.21/bin/bin/../../lib/gcc/pic32c/8.3.1/../../../../pic32c/lib/thumb/v6-m/nofp\libc-musl.a(atoi.o)
 .debug_ranges  0x00000598       0x10 c:/program files/microchip/xc32/v4.21/bin/bin/../../lib/gcc/pic32c/8.3.1/../../../../pic32c/lib/thumb/v6-m/nofp\libc-musl.a(memcpy.o)
 .debug_ranges  0x000005a8       0x10 c:/program files/microchip/xc32/v4.21/bin/bin/../../lib/gcc/pic32c/8.3.1/../../../../pic32c/lib/thumb/v6-m/nofp\libc-musl.a(memset.o)
 .debug_ranges  0x000005b8       0x10 c:/program files/microchip/xc32/v4.21/bin/bin/../../lib/gcc/pic32c/8.3.1/../../../../pic32c/lib/thumb/v6-m/nofp\libc-musl.a(strlen.o)
 .debug_ranges  0x000005c8       0x18 c:/program files/microchip/xc32/v4.21/bin/bin/../../lib/gcc/pic32c/8.3.1/../../../../pic32c/lib/thumb/v6-m/nofp\libc-musl.a(tolower.o)
 .debug_ranges  0x000005e0       0x18 c:/program files/microchip/xc32/v4.21/bin/bin/../../lib/gcc/pic32c/8.3.1/../../../../pic32c/lib/thumb/v6-m/nofp\libc-musl.a(toupper.o)
 .debug_ranges  0x000005f8       0x10 c:/program files/microchip/xc32/v4.21/bin/bin/../../lib/gcc/pic32c/8.3.1/../../../../pic32c/lib/thumb/v6-m/nofp\libc-musl.a(__int_vsprintf.o)
 .debug_ranges  0x00000608       0x10 c:/program files/microchip/xc32/v4.21/bin/bin/../../lib/gcc/pic32c/8.3.1/../../../../pic32c/lib/thumb/v6-m/nofp\libc-musl.a(__pop_float.o)
 .debug_ranges  0x00000618       0x10 c:/program files/microchip/xc32/v4.21/bin/bin/../../lib/gcc/pic32c/8.3.1/../../../../pic32c/lib/thumb/v6-m/nofp\libc-musl.a(__int_vsnprintf.o)
 .debug_ranges  0x00000628       0x10 c:/program files/microchip/xc32/v4.21/bin/bin/../../lib/gcc/pic32c/8.3.1/../../../../pic32c/lib/thumb/v6-m/nofp\libc-musl.a(__int_vfprintf.o)

.debug_line     0x00000000     0x6542
 .debug_line    0x00000000      0x238 build/default/production/_ext/1984496892/plib_clock.o
 .debug_line    0x00000238      0x188 build/default/production/_ext/1986646378/plib_evsys.o
 .debug_line    0x000003c0      0x326 build/default/production/_ext/1865468468/plib_nvic.o
 .debug_line    0x000006e6      0x44e build/default/production/_ext/1593096446/plib_nvmctrl.o
 .debug_line    0x00000b34      0x322 build/default/production/_ext/1865521619/plib_port.o
 .debug_line    0x00000e56      0x392 build/default/production/_ext/60180175/plib_rtc_timer.o
 .debug_line    0x000011e8      0x8e2 build/default/production/_ext/504274921/plib_sercom4_usart.o
 .debug_line    0x00001aca      0x646 build/default/production/_ext/1662611032/kronocommuart_sam.o
 .debug_line    0x00002110      0x6cb build/default/production/_ext/1662611032/kronocommadaptor.o
 .debug_line    0x000027db      0x5e5 build/default/production/_ext/162237794/touch.o
 .debug_line    0x00002dc0      0x2b3 build/default/production/_ext/1171490990/initialization.o
 .debug_line    0x00003073       0xba build/default/production/_ext/1171490990/interrupts.o
 .debug_line    0x0000312d       0x6e build/default/production/_ext/1171490990/exceptions.o
 .debug_line    0x0000319b      0x157 build/default/production/_ext/1171490990/startup_xc32.o
 .debug_line    0x000032f2       0x9f build/default/production/_ext/1360937237/main.o
 .debug_line    0x00003391       0xac c:/program files/microchip/xc32/v4.21/bin/bin/../../lib/gcc/pic32c/8.3.1/../../../../pic32c/lib/thumb/v6-m/nofp\libpic32c.a(data_init_wrapper.o)
 .debug_line    0x0000343d      0x114 c:/program files/microchip/xc32/v4.21/bin/bin/../../lib/gcc/pic32c/8.3.1/../../../../pic32c/lib/thumb/v6-m/nofp\libpic32c.a(data_init_0_1.o)
 .debug_line    0x00003551      0x1ca c:/program files/microchip/xc32/v4.21/bin/bin/../../lib/gcc/pic32c/8.3.1/../../../../pic32c/lib/thumb/v6-m/nofp\libc-musl.a(__libc_start_main.o)
 .debug_line    0x0000371b       0xbc c:/program files/microchip/xc32/v4.21/bin/bin/../../lib/gcc/pic32c/8.3.1/../../../../pic32c/lib/thumb/v6-m/nofp\libc-musl.a(libc.o)
 .debug_line    0x000037d7      0x1b8 c:/program files/microchip/xc32/v4.21/bin/bin/../../lib/gcc/pic32c/8.3.1/../../../../pic32c/lib/thumb/v6-m/nofp\libc-musl.a(__sio_sprintf_doux.o)
 .debug_line    0x0000398f      0x219 c:/program files/microchip/xc32/v4.21/bin/bin/../../lib/gcc/pic32c/8.3.1/../../../../pic32c/lib/thumb/v6-m/nofp\libc-musl.a(__fmt_d.o)
 .debug_line    0x00003ba8      0x1c4 c:/program files/microchip/xc32/v4.21/bin/bin/../../lib/gcc/pic32c/8.3.1/../../../../pic32c/lib/thumb/v6-m/nofp\libc-musl.a(__fmt_o.o)
 .debug_line    0x00003d6c      0x219 c:/program files/microchip/xc32/v4.21/bin/bin/../../lib/gcc/pic32c/8.3.1/../../../../pic32c/lib/thumb/v6-m/nofp\libc-musl.a(__fmt_s.o)
 .debug_line    0x00003f85      0x23b c:/program files/microchip/xc32/v4.21/bin/bin/../../lib/gcc/pic32c/8.3.1/../../../../pic32c/lib/thumb/v6-m/nofp\libc-musl.a(__fmt_u.o)
 .debug_line    0x000041c0      0x301 c:/program files/microchip/xc32/v4.21/bin/bin/../../lib/gcc/pic32c/8.3.1/../../../../pic32c/lib/thumb/v6-m/nofp\libc-musl.a(__fmt_x.o)
 .debug_line    0x000044c1      0x21f c:/program files/microchip/xc32/v4.21/bin/bin/../../lib/gcc/pic32c/8.3.1/../../../../pic32c/lib/thumb/v6-m/nofp\libc-musl.a(__pop_int.o)
 .debug_line    0x000046e0      0x1d6 c:/program files/microchip/xc32/v4.21/bin/bin/../../lib/gcc/pic32c/8.3.1/../../../../pic32c/lib/thumb/v6-m/nofp\libc-musl.a(__pop_ptr.o)
 .debug_line    0x000048b6      0x6ea c:/program files/microchip/xc32/v4.21/bin/bin/../../lib/gcc/pic32c/8.3.1/../../../../pic32c/lib/thumb/v6-m/nofp\libc-musl.a(__printf_core.o)
 .debug_line    0x00004fa0      0x181 c:/program files/microchip/xc32/v4.21/bin/bin/../../lib/gcc/pic32c/8.3.1/../../../../pic32c/lib/thumb/v6-m/nofp\libc-musl.a(atoi.o)
 .debug_line    0x00005121       0xf4 c:/program files/microchip/xc32/v4.21/bin/bin/../../lib/gcc/pic32c/8.3.1/../../../../pic32c/lib/thumb/v6-m/nofp\libc-musl.a(memcpy.o)
 .debug_line    0x00005215       0xe8 c:/program files/microchip/xc32/v4.21/bin/bin/../../lib/gcc/pic32c/8.3.1/../../../../pic32c/lib/thumb/v6-m/nofp\libc-musl.a(memset.o)
 .debug_line    0x000052fd       0xef c:/program files/microchip/xc32/v4.21/bin/bin/../../lib/gcc/pic32c/8.3.1/../../../../pic32c/lib/thumb/v6-m/nofp\libc-musl.a(strlen.o)
 .debug_line    0x000053ec      0x16a c:/program files/microchip/xc32/v4.21/bin/bin/../../lib/gcc/pic32c/8.3.1/../../../../pic32c/lib/thumb/v6-m/nofp\libc-musl.a(tolower.o)
 .debug_line    0x00005556      0x16a c:/program files/microchip/xc32/v4.21/bin/bin/../../lib/gcc/pic32c/8.3.1/../../../../pic32c/lib/thumb/v6-m/nofp\libc-musl.a(toupper.o)
 .debug_line    0x000056c0      0x109 c:/program files/microchip/xc32/v4.21/bin/bin/../../lib/gcc/pic32c/8.3.1/../../../../pic32c/lib/thumb/v6-m/nofp\libc-musl.a(__environ.o)
 .debug_line    0x000057c9       0xa1 c:/program files/microchip/xc32/v4.21/bin/bin/../../lib/gcc/pic32c/8.3.1/../../../../pic32c/lib/thumb/v6-m/nofp\libc-musl.a(__errno_location.o)
 .debug_line    0x0000586a      0x161 c:/program files/microchip/xc32/v4.21/bin/bin/../../lib/gcc/pic32c/8.3.1/../../../../pic32c/lib/thumb/v6-m/nofp\libc-musl.a(__int_vsprintf.o)
 .debug_line    0x000059cb      0x174 c:/program files/microchip/xc32/v4.21/bin/bin/../../lib/gcc/pic32c/8.3.1/../../../../pic32c/lib/thumb/v6-m/nofp\libc-musl.a(__pop_float.o)
 .debug_line    0x00005b3f      0x1d5 c:/program files/microchip/xc32/v4.21/bin/bin/../../lib/gcc/pic32c/8.3.1/../../../../pic32c/lib/thumb/v6-m/nofp\libc-musl.a(__int_vsnprintf.o)
 .debug_line    0x00005d14      0x180 c:/program files/microchip/xc32/v4.21/bin/bin/../../lib/gcc/pic32c/8.3.1/../../../../pic32c/lib/thumb/v6-m/nofp\libc-musl.a(__int_vfprintf.o)
 .debug_line    0x00005e94       0xa1 c:/program files/microchip/xc32/v4.21/bin/bin/../../lib/gcc/pic32c/8.3.1/thumb/v6-m/nofp\libgcc.a(_thumb1_case_uhi.o)
 .debug_line    0x00005f35       0xaf c:/program files/microchip/xc32/v4.21/bin/bin/../../lib/gcc/pic32c/8.3.1/thumb/v6-m/nofp\libgcc.a(_udivsi3.o)
 .debug_line    0x00005fe4       0x98 c:/program files/microchip/xc32/v4.21/bin/bin/../../lib/gcc/pic32c/8.3.1/thumb/v6-m/nofp\libgcc.a(_dvmd_tls.o)
 .debug_line    0x0000607c       0xa3 c:/program files/microchip/xc32/v4.21/bin/bin/../../lib/gcc/pic32c/8.3.1/thumb/v6-m/nofp\libgcc.a(_aeabi_uldivmod.o)
 .debug_line    0x0000611f      0x18f c:/program files/microchip/xc32/v4.21/bin/bin/../../lib/gcc/pic32c/8.3.1/thumb/v6-m/nofp\libgcc.a(_udivmoddi4.o)
 .debug_line    0x000062ae       0xa3 c:/program files/microchip/xc32/v4.21/bin/bin/../../lib/gcc/pic32c/8.3.1/thumb/v6-m/nofp\libgcc.a(_lshrdi3.o)
 .debug_line    0x00006351       0xa3 c:/program files/microchip/xc32/v4.21/bin/bin/../../lib/gcc/pic32c/8.3.1/thumb/v6-m/nofp\libgcc.a(_ashldi3.o)
 .debug_line    0x000063f4       0xa2 c:/program files/microchip/xc32/v4.21/bin/bin/../../lib/gcc/pic32c/8.3.1/thumb/v6-m/nofp\libgcc.a(_clzdi2.o)
 .debug_line    0x00006496       0xac c:/program files/microchip/xc32/v4.21/bin/bin/../../lib/gcc/pic32c/8.3.1/thumb/v6-m/nofp\libgcc.a(_clzsi2.o)

.debug_str      0x00000000      0xf7f
 .debug_str     0x00000000       0x1e build/default/production/_ext/1984496892/plib_clock.o
 .debug_str     0x0000001e       0x16 build/default/production/_ext/1986646378/plib_evsys.o
 .debug_str     0x00000034        0xa build/default/production/_ext/1865468468/plib_nvic.o
 .debug_str     0x0000003e       0x16 build/default/production/_ext/1593096446/plib_nvmctrl.o
 .debug_str     0x00000054        0xb build/default/production/_ext/1865521619/plib_port.o
 .debug_str     0x0000005f       0xaa build/default/production/_ext/60180175/plib_rtc_timer.o
 .debug_str     0x00000109      0x10e build/default/production/_ext/504274921/plib_sercom4_usart.o
 .debug_str     0x00000217       0xd0 build/default/production/_ext/1662611032/kronocommuart_sam.o
 .debug_str     0x000002e7       0x75 build/default/production/_ext/1662611032/kronocommadaptor.o
 .debug_str     0x0000035c      0x344 build/default/production/_ext/162237794/touch.o
 .debug_str     0x000006a0       0x88 build/default/production/_ext/1171490990/initialization.o
 .debug_str     0x00000728        0x0 build/default/production/_ext/1171490990/interrupts.o
 .debug_str     0x00000728        0x0 build/default/production/_ext/1171490990/exceptions.o
 .debug_str     0x00000728       0x2f build/default/production/_ext/1171490990/startup_xc32.o
 .debug_str     0x00000757       0x1d build/default/production/_ext/1360937237/main.o
 .debug_str     0x00000774        0x0 c:/program files/microchip/xc32/v4.21/bin/bin/../../lib/gcc/pic32c/8.3.1/../../../../pic32c/lib/thumb/v6-m/nofp\libpic32c.a(data_init_wrapper.o)
 .debug_str     0x00000774        0x0 c:/program files/microchip/xc32/v4.21/bin/bin/../../lib/gcc/pic32c/8.3.1/../../../../pic32c/lib/thumb/v6-m/nofp\libpic32c.a(data_init_0_1.o)
 .debug_str     0x00000774        0x0 c:/program files/microchip/xc32/v4.21/bin/bin/../../lib/gcc/pic32c/8.3.1/../../../../pic32c/lib/thumb/v6-m/nofp\libc-musl.a(__libc_start_main.o)
 .debug_str     0x00000774        0x0 c:/program files/microchip/xc32/v4.21/bin/bin/../../lib/gcc/pic32c/8.3.1/../../../../pic32c/lib/thumb/v6-m/nofp\libc-musl.a(libc.o)
 .debug_str     0x00000774       0x78 c:/program files/microchip/xc32/v4.21/bin/bin/../../lib/gcc/pic32c/8.3.1/../../../../pic32c/lib/thumb/v6-m/nofp\libc-musl.a(__sio_sprintf_doux.o)
 .debug_str     0x000007ec        0x0 c:/program files/microchip/xc32/v4.21/bin/bin/../../lib/gcc/pic32c/8.3.1/../../../../pic32c/lib/thumb/v6-m/nofp\libc-musl.a(__fmt_d.o)
 .debug_str     0x000007ec        0x0 c:/program files/microchip/xc32/v4.21/bin/bin/../../lib/gcc/pic32c/8.3.1/../../../../pic32c/lib/thumb/v6-m/nofp\libc-musl.a(__fmt_o.o)
 .debug_str     0x000007ec        0x0 c:/program files/microchip/xc32/v4.21/bin/bin/../../lib/gcc/pic32c/8.3.1/../../../../pic32c/lib/thumb/v6-m/nofp\libc-musl.a(__fmt_s.o)
 .debug_str     0x000007ec        0x6 c:/program files/microchip/xc32/v4.21/bin/bin/../../lib/gcc/pic32c/8.3.1/../../../../pic32c/lib/thumb/v6-m/nofp\libc-musl.a(__fmt_u.o)
 .debug_str     0x000007f2        0x0 c:/program files/microchip/xc32/v4.21/bin/bin/../../lib/gcc/pic32c/8.3.1/../../../../pic32c/lib/thumb/v6-m/nofp\libc-musl.a(__fmt_x.o)
 .debug_str     0x000007f2        0x0 c:/program files/microchip/xc32/v4.21/bin/bin/../../lib/gcc/pic32c/8.3.1/../../../../pic32c/lib/thumb/v6-m/nofp\libc-musl.a(__pop_int.o)
 .debug_str     0x000007f2        0x0 c:/program files/microchip/xc32/v4.21/bin/bin/../../lib/gcc/pic32c/8.3.1/../../../../pic32c/lib/thumb/v6-m/nofp\libc-musl.a(__pop_ptr.o)
 .debug_str     0x000007f2       0x20 c:/program files/microchip/xc32/v4.21/bin/bin/../../lib/gcc/pic32c/8.3.1/../../../../pic32c/lib/thumb/v6-m/nofp\libc-musl.a(__printf_core.o)
 .debug_str     0x00000812        0x0 c:/program files/microchip/xc32/v4.21/bin/bin/../../lib/gcc/pic32c/8.3.1/../../../../pic32c/lib/thumb/v6-m/nofp\libc-musl.a(atoi.o)
 .debug_str     0x00000812        0x0 c:/program files/microchip/xc32/v4.21/bin/bin/../../lib/gcc/pic32c/8.3.1/../../../../pic32c/lib/thumb/v6-m/nofp\libc-musl.a(memcpy.o)
 .debug_str     0x00000812        0x0 c:/program files/microchip/xc32/v4.21/bin/bin/../../lib/gcc/pic32c/8.3.1/../../../../pic32c/lib/thumb/v6-m/nofp\libc-musl.a(memset.o)
 .debug_str     0x00000812        0x0 c:/program files/microchip/xc32/v4.21/bin/bin/../../lib/gcc/pic32c/8.3.1/../../../../pic32c/lib/thumb/v6-m/nofp\libc-musl.a(strlen.o)
 .debug_str     0x00000812        0x0 c:/program files/microchip/xc32/v4.21/bin/bin/../../lib/gcc/pic32c/8.3.1/../../../../pic32c/lib/thumb/v6-m/nofp\libc-musl.a(tolower.o)
 .debug_str     0x00000812        0x0 c:/program files/microchip/xc32/v4.21/bin/bin/../../lib/gcc/pic32c/8.3.1/../../../../pic32c/lib/thumb/v6-m/nofp\libc-musl.a(toupper.o)
 .debug_str     0x00000812        0x0 c:/program files/microchip/xc32/v4.21/bin/bin/../../lib/gcc/pic32c/8.3.1/../../../../pic32c/lib/thumb/v6-m/nofp\libc-musl.a(__environ.o)
 .debug_str     0x00000812        0x0 c:/program files/microchip/xc32/v4.21/bin/bin/../../lib/gcc/pic32c/8.3.1/../../../../pic32c/lib/thumb/v6-m/nofp\libc-musl.a(__errno_location.o)
 .debug_str     0x00000812        0xc c:/program files/microchip/xc32/v4.21/bin/bin/../../lib/gcc/pic32c/8.3.1/../../../../pic32c/lib/thumb/v6-m/nofp\libc-musl.a(__int_vsprintf.o)
 .debug_str     0x0000081e        0x0 c:/program files/microchip/xc32/v4.21/bin/bin/../../lib/gcc/pic32c/8.3.1/../../../../pic32c/lib/thumb/v6-m/nofp\libc-musl.a(__pop_float.o)
 .debug_str     0x0000081e        0xb c:/program files/microchip/xc32/v4.21/bin/bin/../../lib/gcc/pic32c/8.3.1/../../../../pic32c/lib/thumb/v6-m/nofp\libc-musl.a(__int_vsnprintf.o)
 .debug_str     0x00000829        0xe c:/program files/microchip/xc32/v4.21/bin/bin/../../lib/gcc/pic32c/8.3.1/../../../../pic32c/lib/thumb/v6-m/nofp\libc-musl.a(__int_vfprintf.o)
 .debug_str     0x00000837       0xe9 c:/program files/microchip/xc32/v4.21/bin/bin/../../lib/gcc/pic32c/8.3.1/thumb/v6-m/nofp\libgcc.a(_thumb1_case_uhi.o)
 .debug_str     0x00000920       0xe9 c:/program files/microchip/xc32/v4.21/bin/bin/../../lib/gcc/pic32c/8.3.1/thumb/v6-m/nofp\libgcc.a(_udivsi3.o)
 .debug_str     0x00000a09       0xe9 c:/program files/microchip/xc32/v4.21/bin/bin/../../lib/gcc/pic32c/8.3.1/thumb/v6-m/nofp\libgcc.a(_dvmd_tls.o)
 .debug_str     0x00000af2       0xe9 c:/program files/microchip/xc32/v4.21/bin/bin/../../lib/gcc/pic32c/8.3.1/thumb/v6-m/nofp\libgcc.a(_aeabi_uldivmod.o)
 .debug_str     0x00000bdb        0x0 c:/program files/microchip/xc32/v4.21/bin/bin/../../lib/gcc/pic32c/8.3.1/thumb/v6-m/nofp\libgcc.a(_udivmoddi4.o)
 .debug_str     0x00000bdb       0xe9 c:/program files/microchip/xc32/v4.21/bin/bin/../../lib/gcc/pic32c/8.3.1/thumb/v6-m/nofp\libgcc.a(_lshrdi3.o)
 .debug_str     0x00000cc4       0xe9 c:/program files/microchip/xc32/v4.21/bin/bin/../../lib/gcc/pic32c/8.3.1/thumb/v6-m/nofp\libgcc.a(_ashldi3.o)
 .debug_str     0x00000dad       0xe9 c:/program files/microchip/xc32/v4.21/bin/bin/../../lib/gcc/pic32c/8.3.1/thumb/v6-m/nofp\libgcc.a(_clzdi2.o)
 .debug_str     0x00000e96       0xe9 c:/program files/microchip/xc32/v4.21/bin/bin/../../lib/gcc/pic32c/8.3.1/thumb/v6-m/nofp\libgcc.a(_clzsi2.o)

.debug_frame    0x00000000      0xe38
 .debug_frame   0x00000000       0x20 build/default/production/_ext/1984496892/plib_clock.o
 .debug_frame   0x00000020       0x60 build/default/production/_ext/1986646378/plib_evsys.o
 .debug_frame   0x00000080       0x5c build/default/production/_ext/1865468468/plib_nvic.o
 .debug_frame   0x000000dc      0x148 build/default/production/_ext/1593096446/plib_nvmctrl.o
 .debug_frame   0x00000224       0xcc build/default/production/_ext/1865521619/plib_port.o
 .debug_frame   0x000002f0       0xf8 build/default/production/_ext/60180175/plib_rtc_timer.o
 .debug_frame   0x000003e8      0x18c build/default/production/_ext/504274921/plib_sercom4_usart.o
 .debug_frame   0x00000574      0x104 build/default/production/_ext/1662611032/kronocommuart_sam.o
 .debug_frame   0x00000678       0x98 build/default/production/_ext/1662611032/kronocommadaptor.o
 .debug_frame   0x00000710      0x16c build/default/production/_ext/162237794/touch.o
 .debug_frame   0x0000087c       0x28 build/default/production/_ext/1171490990/initialization.o
 .debug_frame   0x000008a4       0x20 build/default/production/_ext/1171490990/interrupts.o
 .debug_frame   0x000008c4       0x30 build/default/production/_ext/1171490990/exceptions.o
 .debug_frame   0x000008f4       0x38 build/default/production/_ext/1171490990/startup_xc32.o
 .debug_frame   0x0000092c       0x28 build/default/production/_ext/1360937237/main.o
 .debug_frame   0x00000954       0x28 c:/program files/microchip/xc32/v4.21/bin/bin/../../lib/gcc/pic32c/8.3.1/../../../../pic32c/lib/thumb/v6-m/nofp\libpic32c.a(data_init_wrapper.o)
 .debug_frame   0x0000097c       0x30 c:/program files/microchip/xc32/v4.21/bin/bin/../../lib/gcc/pic32c/8.3.1/../../../../pic32c/lib/thumb/v6-m/nofp\libpic32c.a(data_init_0_1.o)
 .debug_frame   0x000009ac       0x38 c:/program files/microchip/xc32/v4.21/bin/bin/../../lib/gcc/pic32c/8.3.1/../../../../pic32c/lib/thumb/v6-m/nofp\libc-musl.a(__libc_start_main.o)
 .debug_frame   0x000009e4       0x44 c:/program files/microchip/xc32/v4.21/bin/bin/../../lib/gcc/pic32c/8.3.1/../../../../pic32c/lib/thumb/v6-m/nofp\libc-musl.a(__sio_sprintf_doux.o)
 .debug_frame   0x00000a28       0x30 c:/program files/microchip/xc32/v4.21/bin/bin/../../lib/gcc/pic32c/8.3.1/../../../../pic32c/lib/thumb/v6-m/nofp\libc-musl.a(__fmt_d.o)
 .debug_frame   0x00000a58       0x30 c:/program files/microchip/xc32/v4.21/bin/bin/../../lib/gcc/pic32c/8.3.1/../../../../pic32c/lib/thumb/v6-m/nofp\libc-musl.a(__fmt_o.o)
 .debug_frame   0x00000a88       0x30 c:/program files/microchip/xc32/v4.21/bin/bin/../../lib/gcc/pic32c/8.3.1/../../../../pic32c/lib/thumb/v6-m/nofp\libc-musl.a(__fmt_s.o)
 .debug_frame   0x00000ab8       0x50 c:/program files/microchip/xc32/v4.21/bin/bin/../../lib/gcc/pic32c/8.3.1/../../../../pic32c/lib/thumb/v6-m/nofp\libc-musl.a(__fmt_u.o)
 .debug_frame   0x00000b08       0x30 c:/program files/microchip/xc32/v4.21/bin/bin/../../lib/gcc/pic32c/8.3.1/../../../../pic32c/lib/thumb/v6-m/nofp\libc-musl.a(__fmt_x.o)
 .debug_frame   0x00000b38       0x28 c:/program files/microchip/xc32/v4.21/bin/bin/../../lib/gcc/pic32c/8.3.1/../../../../pic32c/lib/thumb/v6-m/nofp\libc-musl.a(__pop_int.o)
 .debug_frame   0x00000b60       0x28 c:/program files/microchip/xc32/v4.21/bin/bin/../../lib/gcc/pic32c/8.3.1/../../../../pic32c/lib/thumb/v6-m/nofp\libc-musl.a(__pop_ptr.o)
 .debug_frame   0x00000b88       0xc0 c:/program files/microchip/xc32/v4.21/bin/bin/../../lib/gcc/pic32c/8.3.1/../../../../pic32c/lib/thumb/v6-m/nofp\libc-musl.a(__printf_core.o)
 .debug_frame   0x00000c48       0x28 c:/program files/microchip/xc32/v4.21/bin/bin/../../lib/gcc/pic32c/8.3.1/../../../../pic32c/lib/thumb/v6-m/nofp\libc-musl.a(atoi.o)
 .debug_frame   0x00000c70       0x28 c:/program files/microchip/xc32/v4.21/bin/bin/../../lib/gcc/pic32c/8.3.1/../../../../pic32c/lib/thumb/v6-m/nofp\libc-musl.a(memcpy.o)
 .debug_frame   0x00000c98       0x20 c:/program files/microchip/xc32/v4.21/bin/bin/../../lib/gcc/pic32c/8.3.1/../../../../pic32c/lib/thumb/v6-m/nofp\libc-musl.a(memset.o)
 .debug_frame   0x00000cb8       0x20 c:/program files/microchip/xc32/v4.21/bin/bin/../../lib/gcc/pic32c/8.3.1/../../../../pic32c/lib/thumb/v6-m/nofp\libc-musl.a(strlen.o)
 .debug_frame   0x00000cd8       0x38 c:/program files/microchip/xc32/v4.21/bin/bin/../../lib/gcc/pic32c/8.3.1/../../../../pic32c/lib/thumb/v6-m/nofp\libc-musl.a(tolower.o)
 .debug_frame   0x00000d10       0x38 c:/program files/microchip/xc32/v4.21/bin/bin/../../lib/gcc/pic32c/8.3.1/../../../../pic32c/lib/thumb/v6-m/nofp\libc-musl.a(toupper.o)
 .debug_frame   0x00000d48       0x28 c:/program files/microchip/xc32/v4.21/bin/bin/../../lib/gcc/pic32c/8.3.1/../../../../pic32c/lib/thumb/v6-m/nofp\libc-musl.a(__int_vsprintf.o)
 .debug_frame   0x00000d70       0x20 c:/program files/microchip/xc32/v4.21/bin/bin/../../lib/gcc/pic32c/8.3.1/../../../../pic32c/lib/thumb/v6-m/nofp\libc-musl.a(__pop_float.o)
 .debug_frame   0x00000d90       0x2c c:/program files/microchip/xc32/v4.21/bin/bin/../../lib/gcc/pic32c/8.3.1/../../../../pic32c/lib/thumb/v6-m/nofp\libc-musl.a(__int_vsnprintf.o)
 .debug_frame   0x00000dbc       0x2c c:/program files/microchip/xc32/v4.21/bin/bin/../../lib/gcc/pic32c/8.3.1/../../../../pic32c/lib/thumb/v6-m/nofp\libc-musl.a(__int_vfprintf.o)
 .debug_frame   0x00000de8       0x20 c:/program files/microchip/xc32/v4.21/bin/bin/../../lib/gcc/pic32c/8.3.1/thumb/v6-m/nofp\libgcc.a(_udivsi3.o)
 .debug_frame   0x00000e08       0x30 c:/program files/microchip/xc32/v4.21/bin/bin/../../lib/gcc/pic32c/8.3.1/thumb/v6-m/nofp\libgcc.a(_udivmoddi4.o)

.note.GNU-stack
                0x00000000        0x0
 .note.GNU-stack
                0x00000000        0x0 c:/program files/microchip/xc32/v4.21/bin/bin/../../lib/gcc/pic32c/8.3.1/../../../../pic32c/lib/thumb/v6-m/nofp\libc-musl.a(__libc_start_main.o)
 .note.GNU-stack
                0x00000000        0x0 c:/program files/microchip/xc32/v4.21/bin/bin/../../lib/gcc/pic32c/8.3.1/../../../../pic32c/lib/thumb/v6-m/nofp\libc-musl.a(libc.o)
 .note.GNU-stack
                0x00000000        0x0 c:/program files/microchip/xc32/v4.21/bin/bin/../../lib/gcc/pic32c/8.3.1/../../../../pic32c/lib/thumb/v6-m/nofp\libc-musl.a(__sio_sprintf_doux.o)
 .note.GNU-stack
                0x00000000        0x0 c:/program files/microchip/xc32/v4.21/bin/bin/../../lib/gcc/pic32c/8.3.1/../../../../pic32c/lib/thumb/v6-m/nofp\libc-musl.a(__fmt_d.o)
 .note.GNU-stack
                0x00000000        0x0 c:/program files/microchip/xc32/v4.21/bin/bin/../../lib/gcc/pic32c/8.3.1/../../../../pic32c/lib/thumb/v6-m/nofp\libc-musl.a(__fmt_o.o)
 .note.GNU-stack
                0x00000000        0x0 c:/program files/microchip/xc32/v4.21/bin/bin/../../lib/gcc/pic32c/8.3.1/../../../../pic32c/lib/thumb/v6-m/nofp\libc-musl.a(__fmt_s.o)
 .note.GNU-stack
                0x00000000        0x0 c:/program files/microchip/xc32/v4.21/bin/bin/../../lib/gcc/pic32c/8.3.1/../../../../pic32c/lib/thumb/v6-m/nofp\libc-musl.a(__fmt_u.o)
 .note.GNU-stack
                0x00000000        0x0 c:/program files/microchip/xc32/v4.21/bin/bin/../../lib/gcc/pic32c/8.3.1/../../../../pic32c/lib/thumb/v6-m/nofp\libc-musl.a(__fmt_x.o)
 .note.GNU-stack
                0x00000000        0x0 c:/program files/microchip/xc32/v4.21/bin/bin/../../lib/gcc/pic32c/8.3.1/../../../../pic32c/lib/thumb/v6-m/nofp\libc-musl.a(__pop_int.o)
 .note.GNU-stack
                0x00000000        0x0 c:/program files/microchip/xc32/v4.21/bin/bin/../../lib/gcc/pic32c/8.3.1/../../../../pic32c/lib/thumb/v6-m/nofp\libc-musl.a(__pop_ptr.o)
 .note.GNU-stack
                0x00000000        0x0 c:/program files/microchip/xc32/v4.21/bin/bin/../../lib/gcc/pic32c/8.3.1/../../../../pic32c/lib/thumb/v6-m/nofp\libc-musl.a(__printf_core.o)
 .note.GNU-stack
                0x00000000        0x0 c:/program files/microchip/xc32/v4.21/bin/bin/../../lib/gcc/pic32c/8.3.1/../../../../pic32c/lib/thumb/v6-m/nofp\libc-musl.a(atoi.o)
 .note.GNU-stack
                0x00000000        0x0 c:/program files/microchip/xc32/v4.21/bin/bin/../../lib/gcc/pic32c/8.3.1/../../../../pic32c/lib/thumb/v6-m/nofp\libc-musl.a(memcpy.o)
 .note.GNU-stack
                0x00000000        0x0 c:/program files/microchip/xc32/v4.21/bin/bin/../../lib/gcc/pic32c/8.3.1/../../../../pic32c/lib/thumb/v6-m/nofp\libc-musl.a(memset.o)
 .note.GNU-stack
                0x00000000        0x0 c:/program files/microchip/xc32/v4.21/bin/bin/../../lib/gcc/pic32c/8.3.1/../../../../pic32c/lib/thumb/v6-m/nofp\libc-musl.a(strlen.o)
 .note.GNU-stack
                0x00000000        0x0 c:/program files/microchip/xc32/v4.21/bin/bin/../../lib/gcc/pic32c/8.3.1/../../../../pic32c/lib/thumb/v6-m/nofp\libc-musl.a(tolower.o)
 .note.GNU-stack
                0x00000000        0x0 c:/program files/microchip/xc32/v4.21/bin/bin/../../lib/gcc/pic32c/8.3.1/../../../../pic32c/lib/thumb/v6-m/nofp\libc-musl.a(toupper.o)
 .note.GNU-stack
                0x00000000        0x0 c:/program files/microchip/xc32/v4.21/bin/bin/../../lib/gcc/pic32c/8.3.1/../../../../pic32c/lib/thumb/v6-m/nofp\libc-musl.a(__environ.o)
 .note.GNU-stack
                0x00000000        0x0 c:/program files/microchip/xc32/v4.21/bin/bin/../../lib/gcc/pic32c/8.3.1/../../../../pic32c/lib/thumb/v6-m/nofp\libc-musl.a(__errno_location.o)
 .note.GNU-stack
                0x00000000        0x0 c:/program files/microchip/xc32/v4.21/bin/bin/../../lib/gcc/pic32c/8.3.1/../../../../pic32c/lib/thumb/v6-m/nofp\libc-musl.a(__int_vsprintf.o)
 .note.GNU-stack
                0x00000000        0x0 c:/program files/microchip/xc32/v4.21/bin/bin/../../lib/gcc/pic32c/8.3.1/../../../../pic32c/lib/thumb/v6-m/nofp\libc-musl.a(__pop_float.o)
 .note.GNU-stack
                0x00000000        0x0 c:/program files/microchip/xc32/v4.21/bin/bin/../../lib/gcc/pic32c/8.3.1/../../../../pic32c/lib/thumb/v6-m/nofp\libc-musl.a(__int_vsnprintf.o)
 .note.GNU-stack
                0x00000000        0x0 c:/program files/microchip/xc32/v4.21/bin/bin/../../lib/gcc/pic32c/8.3.1/../../../../pic32c/lib/thumb/v6-m/nofp\libc-musl.a(__int_vfprintf.o)

.stack          0x200006f8      0x100
 .stack         0x200006f8      0x100 stack

.bss.qtlib_key_data_set1%1
                0x20000014       0x78
 .bss.qtlib_key_data_set1
                0x20000014       0x78 build/default/production/_ext/162237794/touch.o
                0x20000014                qtlib_key_data_set1

.bss.m_buffer%2
                0x2000008c       0x64
 .bss.m_buffer  0x2000008c       0x64 build/default/production/_ext/1662611032/kronocommuart_sam.o
                0x2000008c                m_buffer

.bss%3          0x200000f0       0x8e
 .bss           0x200000f0       0x50 c:/program files/microchip/xc32/v4.21/bin/bin/../../lib/gcc/pic32c/8.3.1/../../../../pic32c/lib/thumb/v6-m/nofp\libc-musl.a(libc.o)
                0x200000f0                __progname_full
                0x200000f0                program_invocation_name
                0x200000f4                program_invocation_short_name
                0x200000f4                __progname
                0x200000f8                __sysinfo
                0x200000fc                __hwcap
                0x20000100                __libc
 .bss           0x20000140       0x3e ..\src\config\default\touch\lib\qtm_surface_gestures_cm0p_0x0023.X.a(sam_surface_gestures_x_cm0p.o)

.bss.noise_filter_buffer%5
                0x20000180       0x3c
 .bss.noise_filter_buffer
                0x20000180       0x3c build/default/production/_ext/162237794/touch.o
                0x20000180                noise_filter_buffer

.bss.ptc_qtlib_node_stat1%6
                0x200001bc       0x3c
 .bss.ptc_qtlib_node_stat1
                0x200001bc       0x3c build/default/production/_ext/162237794/touch.o
                0x200001bc                ptc_qtlib_node_stat1

.bss.uart_runtime_data%7
                0x200001f8       0x39
 .bss.uart_runtime_data
                0x200001f8       0x39 build/default/production/_ext/1662611032/kronocommuart_sam.o
                0x200001f8                uart_runtime_data

.bss.sercom4USARTObj%8
                0x20000234       0x30
 .bss.sercom4USARTObj
                0x20000234       0x30 build/default/production/_ext/504274921/plib_sercom4_usart.o

.bss%9          0x20000264       0x44
 .bss           0x20000264       0x28 ..\src\config\default\touch\lib\qtm_surface_cs_2t_cm0p_0x0025.X.a(sam_surface_cs_2t_x_cm0p.o)
 .bss           0x2000028c       0x1c c:/program files/microchip/xc32/v4.21/bin/bin/../../lib/gcc/pic32c/8.3.1/thumb/v6-m/nofp/crtbegin.o

.bss.qtm_surface_contacts%11
                0x200002a8       0x18
 .bss.qtm_surface_contacts
                0x200002a8       0x18 build/default/production/_ext/162237794/touch.o
                0x200002a8                qtm_surface_contacts

.bss.read_buffer%12
                0x200002c0       0x14
 .bss.read_buffer
                0x200002c0       0x14 build/default/production/_ext/1662611032/kronocommuart_sam.o
                0x200002c0                read_buffer

.bss.touchRaw%13
                0x200002d4       0x14
 .bss.touchRaw  0x200002d4       0x14 build/default/production/_ext/1662611032/kronocommadaptor.o

.bss.touchRef%14
                0x200002e8       0x14
 .bss.touchRef  0x200002e8       0x14 build/default/production/_ext/1662611032/kronocommadaptor.o

.bss.touch_acq_signals_raw%15
                0x200002fc       0x14
 .bss.touch_acq_signals_raw
                0x200002fc       0x14 build/default/production/_ext/162237794/touch.o
                0x200002fc                touch_acq_signals_raw

.bss%16         0x20000310       0x14
 .bss           0x20000310       0x14 ..\src\config\default\touch\lib\qtm_acq_samc21_0x0020.X.a(sam_acq_x_samc21.o)
                0x20000310                current_measure_channel

.bss.rtcObj%17  0x20000324        0xc
 .bss.rtcObj    0x20000324        0xc build/default/production/_ext/60180175/plib_rtc_timer.o

.bss.touchDelta%18
                0x20000330        0xa
 .bss.touchDelta
                0x20000330        0xa build/default/production/_ext/1662611032/kronocommadaptor.o

.bss.qtlib_key_grp_data_set1%19
                0x2000033c        0x8
 .bss.qtlib_key_grp_data_set1
                0x2000033c        0x8 build/default/production/_ext/162237794/touch.o
                0x2000033c                qtlib_key_grp_data_set1

.bss.uart_command_info%20
                0x20000344        0x6
 .bss.uart_command_info
                0x20000344        0x6 build/default/production/_ext/1662611032/kronocommuart_sam.o
                0x20000344                uart_command_info

.bss.touchRam%21
                0x2000034c        0x6
 .bss.touchRam  0x2000034c        0x6 build/default/production/_ext/1662611032/kronocommadaptor.o

.bss.m_ix%22    0x20000354        0x4
 .bss.m_ix      0x20000354        0x4 build/default/production/_ext/1662611032/kronocommuart_sam.o
                0x20000354                m_ix

.bss.m_len%23   0x20000358        0x4
 .bss.m_len     0x20000358        0x4 build/default/production/_ext/1662611032/kronocommuart_sam.o
                0x20000358                m_len

.bss.usart_ptr%24
                0x2000035c        0x4
 .bss.usart_ptr
                0x2000035c        0x4 build/default/production/_ext/1662611032/kronocommuart_sam.o
                0x2000035c                usart_ptr

.bss.rtc_context%25
                0x20000360        0x4
 .bss.rtc_context
                0x20000360        0x4 build/default/production/_ext/162237794/touch.o
                0x20000360                rtc_context

.bss%26         0x20000364        0xc
 .bss           0x20000364        0x4 c:/program files/microchip/xc32/v4.21/bin/bin/../../lib/gcc/pic32c/8.3.1/../../../../pic32c/lib/thumb/v6-m/nofp\libpic32c.a(data_init_0_1.o)
 .bss           0x20000368        0x4 c:/program files/microchip/xc32/v4.21/bin/bin/../../lib/gcc/pic32c/8.3.1/../../../../pic32c/lib/thumb/v6-m/nofp\libc-musl.a(__environ.o)
                0x20000368                __environ
                0x20000368                environ
                0x20000368                ___environ
                0x20000368                _environ
 .bss           0x2000036c        0x4 c:/program files/microchip/xc32/v4.21/bin/bin/../../lib/gcc/pic32c/8.3.1/../../../../pic32c/lib/thumb/v6-m/nofp\libc-musl.a(__errno_location.o)
                0x2000036c                __errno_val

.bss%29         0x2000017e        0x2
 .bss           0x2000017e        0x2 ..\src\config\default\touch\lib\qtm_touch_key_cm0p_0x0002.X.a(sam_touch_key_x_cm0p.o)
                0x2000017e                qtm_local_ms_timecount

.bss.qtm_surface_cs_data1%30
                0x20000370        0x1
 .bss.qtm_surface_cs_data1
                0x20000370        0x1 build/default/production/_ext/162237794/touch.o
                0x20000370                qtm_surface_cs_data1

.bss.qtm_gestures_2d_data%31
                0x20000374        0x3
 .bss.qtm_gestures_2d_data
                0x20000374        0x3 build/default/production/_ext/162237794/touch.o
                0x20000374                qtm_gestures_2d_data

.bss.m_gesture%32
                0x20000378        0x3
 .bss.m_gesture
                0x20000378        0x3 build/default/production/_ext/1662611032/kronocommuart_sam.o
                0x20000378                m_gesture

.bss.read_buf_read_ptr%33
                0x20000377        0x1
 .bss.read_buf_read_ptr
                0x20000377        0x1 build/default/production/_ext/1662611032/kronocommuart_sam.o
                0x20000377                read_buf_read_ptr

.bss.read_buf_write_ptr%34
                0x2000033a        0x1
 .bss.read_buf_write_ptr
                0x2000033a        0x1 build/default/production/_ext/1662611032/kronocommuart_sam.o
                0x2000033a                read_buf_write_ptr

.bss.uart_new_data_available%35
                0x2000033b        0x1
 .bss.uart_new_data_available
                0x2000033b        0x1 build/default/production/_ext/1662611032/kronocommuart_sam.o
                0x2000033b                uart_new_data_available

.bss.uart_tx_in_progress%36
                0x2000034a        0x1
 .bss.uart_tx_in_progress
                0x2000034a        0x1 build/default/production/_ext/1662611032/kronocommuart_sam.o
                0x2000034a                uart_tx_in_progress

.bss.uart_tx_len%37
                0x2000034b        0x1
 .bss.uart_tx_len
                0x2000034b        0x1 build/default/production/_ext/1662611032/kronocommuart_sam.o
                0x2000034b                uart_tx_len

.bss.write_buf_write_ptr%38
                0x20000352        0x1
 .bss.write_buf_write_ptr
                0x20000352        0x1 build/default/production/_ext/1662611032/kronocommuart_sam.o
                0x20000352                write_buf_write_ptr

.bss.frameCount.6843%39
                0x20000353        0x1
 .bss.frameCount.6843
                0x20000353        0x1 build/default/production/_ext/1662611032/kronocommadaptor.o

.bss.initialized.6842%40
                0x20000231        0x1
 .bss.initialized.6842
                0x20000231        0x1 build/default/production/_ext/1662611032/kronocommadaptor.o

.bss.previousSurfaceStatus.6844%41
                0x20000232        0x1
 .bss.previousSurfaceStatus.6844
                0x20000232        0x1 build/default/production/_ext/1662611032/kronocommadaptor.o

.bss.writeback_req%42
                0x20000233        0x1
 .bss.writeback_req
                0x20000233        0x1 build/default/production/_ext/1662611032/kronocommadaptor.o

.bss.interrupt_cnt%43
                0x20000371        0x1
 .bss.interrupt_cnt
                0x20000371        0x1 build/default/production/_ext/162237794/touch.o
                0x20000371                interrupt_cnt

.bss.measurement_done_touch%44
                0x20000372        0x1
 .bss.measurement_done_touch
                0x20000372        0x1 build/default/production/_ext/162237794/touch.o
                0x20000372                measurement_done_touch

.bss.module_error_code%45
                0x20000373        0x1
 .bss.module_error_code
                0x20000373        0x1 build/default/production/_ext/162237794/touch.o
                0x20000373                module_error_code

.bss.time_to_measure_touch_var%46
                0x2000037b        0x1
 .bss.time_to_measure_touch_var
                0x2000037b        0x1 build/default/production/_ext/162237794/touch.o
                0x2000037b                time_to_measure_touch_var

.bss.touch_gesture_time_cnt%47
                0x2000037c        0x1
 .bss.touch_gesture_time_cnt
                0x2000037c        0x1 build/default/production/_ext/162237794/touch.o
                0x2000037c                touch_gesture_time_cnt

.bss.touch_postprocess_request%48
                0x2000037d        0x1
 .bss.touch_postprocess_request
                0x2000037d        0x1 build/default/production/_ext/162237794/touch.o
                0x2000037d                touch_postprocess_request

.data.ptc_seq_node_cfg1%49
                0x20000380       0x78
 .data.ptc_seq_node_cfg1
                0x20000380       0x78 build/default/production/_ext/162237794/touch.o
                0x20000380                ptc_seq_node_cfg1

.data.qtm_gestures_2d_config%50
                0x200003f8       0x28
 .data.qtm_gestures_2d_config
                0x200003f8       0x28 build/default/production/_ext/162237794/touch.o
                0x200003f8                qtm_gestures_2d_config

.data.qtlib_key_configs_set1%51
                0x20000420       0x1e
 .data.qtlib_key_configs_set1
                0x20000420       0x1e build/default/production/_ext/162237794/touch.o
                0x20000420                qtlib_key_configs_set1

.data.qtlib_key_set1%52
                0x20000440       0x10
 .data.qtlib_key_set1
                0x20000440       0x10 build/default/production/_ext/162237794/touch.o
                0x20000440                qtlib_key_set1

.data.qtm_surface_cs_config1%53
                0x20000450       0x10
 .data.qtm_surface_cs_config1
                0x20000450       0x10 build/default/production/_ext/162237794/touch.o
                0x20000450                qtm_surface_cs_config1

.data.gestureCfgRam%54
                0x20000460        0xe
 .data.gestureCfgRam
                0x20000460        0xe build/default/production/_ext/1662611032/kronocommadaptor.o

.data.qtlib_acq_set1%55
                0x20000470        0xc
 .data.qtlib_acq_set1
                0x20000470        0xc build/default/production/_ext/162237794/touch.o
                0x20000470                qtlib_acq_set1

.data.qtm_freq_hop_config1%56
                0x2000047c        0xc
 .data.qtm_freq_hop_config1
                0x2000047c        0xc build/default/production/_ext/162237794/touch.o
                0x2000047c                qtm_freq_hop_config1

.data.qtm_freq_hop_data1%57
                0x20000488        0xc
 .data.qtm_freq_hop_data1
                0x20000488        0xc build/default/production/_ext/162237794/touch.o
                0x20000488                qtm_freq_hop_data1

.data.qtm_surface_cs_control1%58
                0x20000494        0xc
 .data.qtm_surface_cs_control1
                0x20000494        0xc build/default/production/_ext/162237794/touch.o
                0x20000494                qtm_surface_cs_control1

.data.cfgRam%59
                0x200004a0        0xa
 .data.cfgRam   0x200004a0        0xa build/default/production/_ext/1662611032/kronocommadaptor.o

.data.qtlib_key_grp_config_set1%60
                0x200004ac        0xa
 .data.qtlib_key_grp_config_set1
                0x200004ac        0xa build/default/production/_ext/162237794/touch.o
                0x200004ac                qtlib_key_grp_config_set1

.data.coreRam%61
                0x200004b8        0x8
 .data.coreRam  0x200004b8        0x8 build/default/production/_ext/1662611032/kronocommadaptor.o

.data.qtm_freq_hop_control1%62
                0x200004c0        0x8
 .data.qtm_freq_hop_control1
                0x200004c0        0x8 build/default/production/_ext/162237794/touch.o
                0x200004c0                qtm_freq_hop_control1

.data.qtm_gestures_2d_control1%63
                0x200004c8        0x8
 .data.qtm_gestures_2d_control1
                0x200004c8        0x8 build/default/production/_ext/162237794/touch.o
                0x200004c8                qtm_gestures_2d_control1

.data.ptc_qtlib_acq_gen1%64
                0x200004d0        0x6
 .data.ptc_qtlib_acq_gen1
                0x200004d0        0x6 build/default/production/_ext/162237794/touch.o
                0x200004d0                ptc_qtlib_acq_gen1

.data.freq_hop_delay_selection%65
                0x200004d8        0x3
 .data.freq_hop_delay_selection
                0x200004d8        0x3 build/default/production/_ext/162237794/touch.o
                0x200004d8                freq_hop_delay_selection

.data%66        0x2000037e        0x2
 .data          0x2000037e        0x2 ..\src\config\default\touch\lib\qtm_surface_gestures_cm0p_0x0023.X.a(sam_surface_gestures_x_cm0p.o)

.data.uart_send_ges_data_flag%67
                0x2000043e        0x1
 .data.uart_send_ges_data_flag
                0x2000043e        0x1 build/default/production/_ext/1662611032/kronocommuart_sam.o
                0x2000043e                uart_send_ges_data_flag

.data%68        0x2000043f        0x1
 .data          0x2000043f        0x1 ..\src\config\default\touch\lib\qtm_acq_samc21_0x0020.X.a(sam_acq_x_samc21.o)
                0x2000043f                qtm_which_mode_current

.eh_frame%z1    0x00000000        0x0
 .eh_frame      0x00000000        0x0 c:/program files/microchip/xc32/v4.21/bin/bin/../../lib/gcc/pic32c/8.3.1/thumb/v6-m/nofp/crtbegin.o

.config_00804000.__config_00804000%69
                0x00804000        0x4
 .config_00804000.__config_00804000
                0x00804000        0x4 build/default/production/_ext/1171490990/initialization.o
                0x00804000                __config_00804000

.config_00804004.__config_00804004%70
                0x00804004        0x4
 .config_00804004.__config_00804004
                0x00804004        0x4 build/default/production/_ext/1171490990/initialization.o
                0x00804004                __config_00804004

.text.qtm_surface_cs2t_process%71
                0x000000e4      0x908
 .text.qtm_surface_cs2t_process
                0x000000e4      0x908 ..\src\config\default\touch\lib\qtm_surface_cs_2t_cm0p_0x0025.X.a(sam_surface_cs_2t_x_cm0p.o)
                0x000000e4                qtm_surface_cs2t_process

.text.qtm_gestures_2d_process%72
                0x000009ec      0x4f0
 .text.qtm_gestures_2d_process
                0x000009ec      0x4f0 ..\src\config\default\touch\lib\qtm_surface_gestures_cm0p_0x0023.X.a(sam_surface_gestures_x_cm0p.o)
                0x000009ec                qtm_gestures_2d_process

.dinit%73       0x00000edc      0x4c0
 .dinit         0x00000edc      0x4c0 data_init

.text.qtm_key_sensors_process%74
                0x0000139c      0x48c
 .text.qtm_key_sensors_process
                0x0000139c      0x48c ..\src\config\default\touch\lib\qtm_touch_key_cm0p_0x0002.X.a(sam_touch_key_x_cm0p.o)
                0x0000139c                qtm_key_sensors_process

.text.qtm_acquisition_process%75
                0x00001828      0x350
 .text.qtm_acquisition_process
                0x00001828      0x350 ..\src\config\default\touch\lib\qtm_acq_samc21_0x0020.X.a(sam_acq_x_samc21.o)
                0x00001828                qtm_acquisition_process

.text.__printf_core%76
                0x00001b78      0x324
 .text.__printf_core
                0x00001b78      0x324 c:/program files/microchip/xc32/v4.21/bin/bin/../../lib/gcc/pic32c/8.3.1/../../../../pic32c/lib/thumb/v6-m/nofp\libc-musl.a(__printf_core.o)
                0x00001b78                __printf_core

.text.Krono_UpdateBuffer%77
                0x00001e9c      0x2e0
 .text.Krono_UpdateBuffer
                0x00001e9c      0x2e0 build/default/production/_ext/1662611032/kronocommadaptor.o
                0x00001e9c                Krono_UpdateBuffer

.text.appendEvent%78
                0x0000217c      0x274
 .text.appendEvent
                0x0000217c      0x274 ..\src\config\default\touch\lib\qtm_surface_gestures_cm0p_0x0023.X.a(sam_surface_gestures_x_cm0p.o)

.text.uart_process%79
                0x000023f0      0x1a4
 .text.uart_process
                0x000023f0      0x1a4 build/default/production/_ext/1662611032/kronocommuart_sam.o
                0x000023f0                uart_process

.text.qtm_measure_node%80
                0x00002594      0x19c
 .text.qtm_measure_node
                0x00002594      0x19c ..\src\config\default\touch\lib\qtm_acq_samc21_0x0020.X.a(sam_acq_x_samc21.o)

.text.SERCOM4_USART_InterruptHandler%81
                0x00002730      0x16c
 .text.SERCOM4_USART_InterruptHandler
                0x00002730      0x16c build/default/production/_ext/504274921/plib_sercom4_usart.o
                0x00002730                SERCOM4_USART_InterruptHandler

.text.qtm_ptc_init_acquisition_module%82
                0x0000289c      0x134
 .text.qtm_ptc_init_acquisition_module
                0x0000289c      0x134 ..\src\config\default\touch\lib\qtm_acq_samc21_0x0020.X.a(sam_acq_x_samc21.o)
                0x0000289c                qtm_ptc_init_acquisition_module

.text.__fmt_x%83
                0x000029d0      0x134
 .text.__fmt_x  0x000029d0      0x134 c:/program files/microchip/xc32/v4.21/bin/bin/../../lib/gcc/pic32c/8.3.1/../../../../pic32c/lib/thumb/v6-m/nofp\libc-musl.a(__fmt_x.o)
                0x000029d0                __fmt_x_needed
                0x000029d0                __fmt_x

.text.qtm_freq_hop%84
                0x00002b04      0x108
 .text.qtm_freq_hop
                0x00002b04      0x108 ..\src\config\default\touch\lib\qtm_freq_hop_cm0p_0x0006.X.a(sam_freq_hop_x_cm0p.o)
                0x00002b04                qtm_freq_hop

.rodata%85      0x00002c0c      0x100
 .rodata        0x00002c0c      0x100 ..\src\config\default\touch\lib\qtm_surface_gestures_cm0p_0x0023.X.a(sam_surface_gestures_x_cm0p.o)
                0x00002c0c                GESTURE_EVENTS
                0x00002cfc                stateTable

.text%86        0x00002d0c       0xe2
 .text          0x00002d0c       0xe2 c:/program files/microchip/xc32/v4.21/bin/bin/../../lib/gcc/pic32c/8.3.1/thumb/v6-m/nofp\libgcc.a(_udivmoddi4.o)
                0x00002d0c                __udivmoddi4

.text.qtm_ptc_start_measurement_seq%87
                0x00002df0       0xd4
 .text.qtm_ptc_start_measurement_seq
                0x00002df0       0xd4 ..\src\config\default\touch\lib\qtm_acq_samc21_0x0020.X.a(sam_acq_x_samc21.o)
                0x00002df0                qtm_ptc_start_measurement_seq

.text.touch_process%88
                0x00002ec4       0xd0
 .text.touch_process
                0x00002ec4       0xd0 build/default/production/_ext/162237794/touch.o
                0x00002ec4                touch_process

.text.CLOCK_Initialize%89
                0x00002f94       0xc4
 .text.CLOCK_Initialize
                0x00002f94       0xc4 build/default/production/_ext/1984496892/plib_clock.o
                0x00002f94                CLOCK_Initialize

.text.get_interpolated_position.isra.2%90
                0x00003058       0xc0
 .text.get_interpolated_position.isra.2
                0x00003058       0xc0 ..\src\config\default\touch\lib\qtm_surface_cs_2t_cm0p_0x0025.X.a(sam_surface_cs_2t_x_cm0p.o)

.text.__pop_int%91
                0x00003118       0xbe
 .text.__pop_int
                0x00003118       0xbe c:/program files/microchip/xc32/v4.21/bin/bin/../../lib/gcc/pic32c/8.3.1/../../../../pic32c/lib/thumb/v6-m/nofp\libc-musl.a(__pop_int.o)
                0x00003118                __pop_int_needed
                0x00003118                __pop_int

.text.__fmt_d%92
                0x000031d6       0xb2
 .text.__fmt_d  0x000031d6       0xb2 c:/program files/microchip/xc32/v4.21/bin/bin/../../lib/gcc/pic32c/8.3.1/../../../../pic32c/lib/thumb/v6-m/nofp\libc-musl.a(__fmt_d.o)
                0x000031d6                __fmt_d
                0x000031d6                __fmt_d_needed

.text.Krono_memory_map_read%93
                0x00003288       0xa8
 .text.Krono_memory_map_read
                0x00003288       0xa8 build/default/production/_ext/1662611032/kronocommadaptor.o
                0x00003288                Krono_memory_map_read

.text.qtm_samc21_ptc_handler_eoc%94
                0x00003330       0xa4
 .text.qtm_samc21_ptc_handler_eoc
                0x00003330       0xa4 ..\src\config\default\touch\lib\qtm_acq_samc21_0x0020.X.a(sam_acq_x_samc21.o)
                0x00003330                qtm_samc21_ptc_handler_eoc

.text.uart_send_touch_gesture_data%95
                0x000033d4       0x98
 .text.uart_send_touch_gesture_data
                0x000033d4       0x98 build/default/production/_ext/1662611032/kronocommuart_sam.o
                0x000033d4                uart_send_touch_gesture_data

.text.uart_init_debug_data%96
                0x0000346c       0x90
 .text.uart_init_debug_data
                0x0000346c       0x90 build/default/production/_ext/1662611032/kronocommuart_sam.o
                0x0000346c                uart_init_debug_data

.text.check_for_twin_peaks.isra.1%97
                0x000034fc       0x8c
 .text.check_for_twin_peaks.isra.1
                0x000034fc       0x8c ..\src\config\default\touch\lib\qtm_surface_cs_2t_cm0p_0x0025.X.a(sam_surface_cs_2t_x_cm0p.o)

.text%98        0x00003588       0x8c
 .text          0x00003588       0x8c c:/program files/microchip/xc32/v4.21/bin/bin/../../lib/gcc/pic32c/8.3.1/thumb/v6-m/nofp\libgcc.a(_udivsi3.o)
                0x00003588                __aeabi_uidiv
                0x00003588                __udivsi3
                0x00003600                __aeabi_uidivmod

.text.charge_share_test%99
                0x00003614       0x88
 .text.charge_share_test
                0x00003614       0x88 ..\src\config\default\touch\lib\qtm_acq_samc21_0x0020.X.a(sam_acq_x_samc21.o)

.text.__cvt_u%100
                0x0000369c       0x7e
 .text.__cvt_u  0x0000369c       0x7e c:/program files/microchip/xc32/v4.21/bin/bin/../../lib/gcc/pic32c/8.3.1/../../../../pic32c/lib/thumb/v6-m/nofp\libc-musl.a(__fmt_u.o)
                0x0000369c                __cvt_u

.text.check_for_aks_block%101
                0x0000371a       0x7a
 .text.check_for_aks_block
                0x0000371a       0x7a ..\src\config\default\touch\lib\qtm_touch_key_cm0p_0x0002.X.a(sam_touch_key_x_cm0p.o)

.text.__pad%102
                0x00003794       0x7a
 .text.__pad    0x00003794       0x7a c:/program files/microchip/xc32/v4.21/bin/bin/../../lib/gcc/pic32c/8.3.1/../../../../pic32c/lib/thumb/v6-m/nofp\libc-musl.a(__printf_core.o)
                0x00003794                __pad

.text.SERCOM4_USART_Write%103
                0x00003810       0x74
 .text.SERCOM4_USART_Write
                0x00003810       0x74 build/default/production/_ext/504274921/plib_sercom4_usart.o
                0x00003810                SERCOM4_USART_Write

.text.__pic32c_data_initialization_impl%104
                0x00003884       0x70
 .text.__pic32c_data_initialization_impl
                0x00003884       0x70 c:/program files/microchip/xc32/v4.21/bin/bin/../../lib/gcc/pic32c/8.3.1/../../../../pic32c/lib/thumb/v6-m/nofp\libpic32c.a(data_init_0_1.o)
                0x00003884                __copy_needed
                0x00003884                __pic32c_data_initialization_impl

.text.__fmt_o%105
                0x000038f4       0x6e
 .text.__fmt_o  0x000038f4       0x6e c:/program files/microchip/xc32/v4.21/bin/bin/../../lib/gcc/pic32c/8.3.1/../../../../pic32c/lib/thumb/v6-m/nofp\libc-musl.a(__fmt_o.o)
                0x000038f4                __fmt_o
                0x000038f4                __fmt_o_needed

.text.PORT_Initialize%106
                0x00003962       0x68
 .text.PORT_Initialize
                0x00003962       0x68 build/default/production/_ext/1865521619/plib_port.o
                0x00003962                PORT_Initialize

.text.touch_init%107
                0x000039cc       0x68
 .text.touch_init
                0x000039cc       0x68 build/default/production/_ext/162237794/touch.o
                0x000039cc                touch_init

.text.__pop_ptr%108
                0x00003a34       0x68
 .text.__pop_ptr
                0x00003a34       0x68 c:/program files/microchip/xc32/v4.21/bin/bin/../../lib/gcc/pic32c/8.3.1/../../../../pic32c/lib/thumb/v6-m/nofp\libc-musl.a(__pop_ptr.o)
                0x00003a34                __pop_ptr
                0x00003a34                __pop_ptr_needed

.text.qtm_load_group_config.isra.1%109
                0x00003a9c       0x60
 .text.qtm_load_group_config.isra.1
                0x00003a9c       0x60 ..\src\config\default\touch\lib\qtm_acq_samc21_0x0020.X.a(sam_acq_x_samc21.o)

.text.touch_timer_handler%110
                0x00003afc       0x5c
 .text.touch_timer_handler
                0x00003afc       0x5c build/default/production/_ext/162237794/touch.o
                0x00003afc                touch_timer_handler

.text.divide%111
                0x00003b58       0x5c
 .text.divide   0x00003b58       0x5c ..\src\config\default\touch\lib\qtm_surface_cs_2t_cm0p_0x0025.X.a(sam_surface_cs_2t_x_cm0p.o)

.text.get_axis_contact_size%112
                0x00003bb4       0x5c
 .text.get_axis_contact_size
                0x00003bb4       0x5c ..\src\config\default\touch\lib\qtm_surface_cs_2t_cm0p_0x0025.X.a(sam_surface_cs_2t_x_cm0p.o)

.text.deadband_and_scale%113
                0x00003c10       0x5c
 .text.deadband_and_scale
                0x00003c10       0x5c ..\src\config\default\touch\lib\qtm_surface_cs_2t_cm0p_0x0025.X.a(sam_surface_cs_2t_x_cm0p.o)
                0x00003c10                deadband_and_scale

.text.__libc_start_init%114
                0x00003c6c       0x5c
 .text.__libc_start_init
                0x00003c6c       0x5c c:/program files/microchip/xc32/v4.21/bin/bin/../../lib/gcc/pic32c/8.3.1/../../../../pic32c/lib/thumb/v6-m/nofp\libc-musl.a(__libc_start_main.o)
                0x00003c6c                __libc_init_array

.text.NVIC_Initialize%115
                0x00003cc8       0x58
 .text.NVIC_Initialize
                0x00003cc8       0x58 build/default/production/_ext/1865468468/plib_nvic.o
                0x00003cc8                NVIC_Initialize

.text.SERCOM4_USART_Initialize%116
                0x00003d20       0x58
 .text.SERCOM4_USART_Initialize
                0x00003d20       0x58 build/default/production/_ext/504274921/plib_sercom4_usart.o
                0x00003d20                SERCOM4_USART_Initialize

.text.__fmt_u%117
                0x00003d78       0x56
 .text.__fmt_u  0x00003d78       0x56 c:/program files/microchip/xc32/v4.21/bin/bin/../../lib/gcc/pic32c/8.3.1/../../../../pic32c/lib/thumb/v6-m/nofp\libc-musl.a(__fmt_u.o)
                0x00003d78                __fmt_u_needed
                0x00003d78                __fmt_u

.text.median_filter_update%118
                0x00003dd0       0x54
 .text.median_filter_update
                0x00003dd0       0x54 ..\src\config\default\touch\lib\qtm_surface_cs_2t_cm0p_0x0025.X.a(sam_surface_cs_2t_x_cm0p.o)

.text.krono_tx_complete_callback%119
                0x00003e24       0x50
 .text.krono_tx_complete_callback
                0x00003e24       0x50 build/default/production/_ext/1662611032/kronocommuart_sam.o
                0x00003e24                krono_tx_complete_callback

.text.qtm_calibrate_sensor_node%120
                0x00003e74       0x50
 .text.qtm_calibrate_sensor_node
                0x00003e74       0x50 ..\src\config\default\touch\lib\qtm_acq_samc21_0x0020.X.a(sam_acq_x_samc21.o)
                0x00003e74                qtm_calibrate_sensor_node

.text.__fmt_s%121
                0x00003ec4       0x50
 .text.__fmt_s  0x00003ec4       0x50 c:/program files/microchip/xc32/v4.21/bin/bin/../../lib/gcc/pic32c/8.3.1/../../../../pic32c/lib/thumb/v6-m/nofp\libc-musl.a(__fmt_s.o)
                0x00003ec4                __fmt_s
                0x00003ec4                __fmt_0_needed
                0x00003ec4                __fmt_s_needed

.text.__vsnprintf%122
                0x00003f14       0x50
 .text.__vsnprintf
                0x00003f14       0x50 c:/program files/microchip/xc32/v4.21/bin/bin/../../lib/gcc/pic32c/8.3.1/../../../../pic32c/lib/thumb/v6-m/nofp\libc-musl.a(__int_vsnprintf.o)
                0x00003f14                __vsnprintf

.text.Krono_memory_map_write%123
                0x00003f64       0x4c
 .text.Krono_memory_map_write
                0x00003f64       0x4c build/default/production/_ext/1662611032/kronocommadaptor.o
                0x00003f64                Krono_memory_map_write

.text%124       0x00003fb0       0x48
 .text          0x00003fb0       0x48 c:/program files/microchip/xc32/v4.21/bin/bin/../../lib/gcc/pic32c/8.3.1/thumb/v6-m/nofp/crtbegin.o

.text.Reset_Handler%125
                0x00003ff8       0x48
 .text.Reset_Handler
                0x00003ff8       0x48 build/default/production/_ext/1171490990/startup_xc32.o
                0x00003ff8                Reset_Handler

.text.SERCOM4_USART_Read%126
                0x00004040       0x44
 .text.SERCOM4_USART_Read
                0x00004040       0x44 build/default/production/_ext/504274921/plib_sercom4_usart.o
                0x00004040                SERCOM4_USART_Read

.text.uart_send_header%127
                0x00004084       0x44
 .text.uart_send_header
                0x00004084       0x44 build/default/production/_ext/1662611032/kronocommuart_sam.o
                0x00004084                uart_send_header

.text.filter_position_iir%128
                0x000040c8       0x42
 .text.filter_position_iir
                0x000040c8       0x42 ..\src\config\default\touch\lib\qtm_surface_cs_2t_cm0p_0x0025.X.a(sam_surface_cs_2t_x_cm0p.o)

.text.select_next_channel_to_measure%129
                0x0000410c       0x40
 .text.select_next_channel_to_measure
                0x0000410c       0x40 ..\src\config\default\touch\lib\qtm_acq_samc21_0x0020.X.a(sam_acq_x_samc21.o)

.text.atoi%130  0x0000414c       0x40
 .text.atoi     0x0000414c       0x40 c:/program files/microchip/xc32/v4.21/bin/bin/../../lib/gcc/pic32c/8.3.1/../../../../pic32c/lib/thumb/v6-m/nofp\libc-musl.a(atoi.o)
                0x0000414c                atoi

.text%131       0x0000418c       0x40
 .text          0x0000418c       0x40 c:/program files/microchip/xc32/v4.21/bin/bin/../../lib/gcc/pic32c/8.3.1/thumb/v6-m/nofp\libgcc.a(_aeabi_uldivmod.o)
                0x0000418c                __aeabi_uldivmod

.text.getSwipeDirection%132
                0x000041cc       0x3c
 .text.getSwipeDirection
                0x000041cc       0x3c ..\src\config\default\touch\lib\qtm_surface_gestures_cm0p_0x0023.X.a(sam_surface_gestures_x_cm0p.o)

.text%133       0x00004208       0x3c
 .text          0x00004208       0x3c c:/program files/microchip/xc32/v4.21/bin/bin/../../lib/gcc/pic32c/8.3.1/thumb/v6-m/nofp\libgcc.a(_clzsi2.o)
                0x00004208                __clzsi2

.text.touch_timer_config%134
                0x00004244       0x38
 .text.touch_timer_config
                0x00004244       0x38 build/default/production/_ext/162237794/touch.o
                0x00004244                touch_timer_config

.text.RTC_Initialize%135
                0x0000427c       0x34
 .text.RTC_Initialize
                0x0000427c       0x34 build/default/production/_ext/60180175/plib_rtc_timer.o
                0x0000427c                RTC_Initialize

.text.krono_rx_complete_callback%136
                0x000042b0       0x34
 .text.krono_rx_complete_callback
                0x000042b0       0x34 build/default/production/_ext/1662611032/kronocommuart_sam.o
                0x000042b0                krono_rx_complete_callback

.text.__fmt_state%137
                0x000042e4       0x34
 .text.__fmt_state
                0x000042e4       0x34 c:/program files/microchip/xc32/v4.21/bin/bin/../../lib/gcc/pic32c/8.3.1/../../../../pic32c/lib/thumb/v6-m/nofp\libc-musl.a(__printf_core.o)
                0x000042e4                __fmt_state

.text.SYS_Initialize%138
                0x00004318       0x30
 .text.SYS_Initialize
                0x00004318       0x30 build/default/production/_ext/1171490990/initialization.o
                0x00004318                SYS_Initialize

.rodata%139     0x00004348       0x2e
 .rodata        0x00004348       0x2e ..\src\config\default\touch\lib\qtm_acq_samc21_0x0020.X.a(sam_acq_x_samc21.o)

.text.RTC_InterruptHandler%140
                0x00004378       0x2c
 .text.RTC_InterruptHandler
                0x00004378       0x2c build/default/production/_ext/60180175/plib_rtc_timer.o
                0x00004378                RTC_InterruptHandler

.text.SERCOM4_USART_ErrorClear%141
                0x000043a4       0x2c
 .text.SERCOM4_USART_ErrorClear
                0x000043a4       0x2c build/default/production/_ext/504274921/plib_sercom4_usart.o

.text.uart_send_data%142
                0x000043d0       0x2c
 .text.uart_send_data
                0x000043d0       0x2c build/default/production/_ext/1662611032/kronocommuart_sam.o
                0x000043d0                uart_send_data

.text.qtm_init_surface_cs2t%143
                0x000043fc       0x2a
 .text.qtm_init_surface_cs2t
                0x000043fc       0x2a ..\src\config\default\touch\lib\qtm_surface_cs_2t_cm0p_0x0025.X.a(sam_surface_cs_2t_x_cm0p.o)
                0x000043fc                qtm_init_surface_cs2t

.text.__pop_float%144
                0x00004426       0x2a
 .text.__pop_float
                0x00004426       0x2a c:/program files/microchip/xc32/v4.21/bin/bin/../../lib/gcc/pic32c/8.3.1/../../../../pic32c/lib/thumb/v6-m/nofp\libc-musl.a(__pop_float.o)
                0x00004426                __pop_float_needed
                0x00004426                __pop_float

.text.uart_get_char%145
                0x00004450       0x28
 .text.uart_get_char
                0x00004450       0x28 build/default/production/_ext/1662611032/kronocommuart_sam.o
                0x00004450                uart_get_char

.text.uart_send_data_wait%146
                0x00004478       0x28
 .text.uart_send_data_wait
                0x00004478       0x28 build/default/production/_ext/1662611032/kronocommuart_sam.o
                0x00004478                uart_send_data_wait

.text.__string_out%147
                0x000044a0       0x26
 .text.__string_out
                0x000044a0       0x26 c:/program files/microchip/xc32/v4.21/bin/bin/../../lib/gcc/pic32c/8.3.1/../../../../pic32c/lib/thumb/v6-m/nofp\libc-musl.a(__printf_core.o)
                0x000044a0                __out

.text.uart_min_num_bytes_received%148
                0x000044c8       0x24
 .text.uart_min_num_bytes_received
                0x000044c8       0x24 build/default/production/_ext/1662611032/kronocommuart_sam.o
                0x000044c8                uart_min_num_bytes_received

.text.qtm_ptc_clear_interrupt%149
                0x000044ec       0x24
 .text.qtm_ptc_clear_interrupt
                0x000044ec       0x24 ..\src\config\default\touch\lib\qtm_acq_samc21_0x0020.X.a(sam_acq_x_samc21.o)
                0x000044ec                qtm_ptc_clear_interrupt

.text.qtm_init_gestures_2d%150
                0x00004510       0x24
 .text.qtm_init_gestures_2d
                0x00004510       0x24 ..\src\config\default\touch\lib\qtm_surface_gestures_cm0p_0x0023.X.a(sam_surface_gestures_x_cm0p.o)
                0x00004510                qtm_init_gestures_2d

.text.qtm_enable_sensor_node%151
                0x00004534       0x20
 .text.qtm_enable_sensor_node
                0x00004534       0x20 ..\src\config\default\touch\lib\qtm_acq_samc21_0x0020.X.a(sam_acq_x_samc21.o)
                0x00004534                qtm_enable_sensor_node

.text.qtm_init_sensor_key%152
                0x00004554       0x1e
 .text.qtm_init_sensor_key
                0x00004554       0x1e ..\src\config\default\touch\lib\qtm_touch_key_cm0p_0x0002.X.a(sam_touch_key_x_cm0p.o)
                0x00004554                qtm_init_sensor_key

.text.RTC_Timer32Start%153
                0x00004574       0x1c
 .text.RTC_Timer32Start
                0x00004574       0x1c build/default/production/_ext/60180175/plib_rtc_timer.o
                0x00004574                RTC_Timer32Start

.text.RTC_Timer32Stop%154
                0x00004590       0x1c
 .text.RTC_Timer32Stop
                0x00004590       0x1c build/default/production/_ext/60180175/plib_rtc_timer.o
                0x00004590                RTC_Timer32Stop

.rodata%155     0x000045ac       0x34
 .rodata        0x000045ac       0x1c c:/program files/microchip/xc32/v4.21/bin/bin/../../lib/gcc/pic32c/8.3.1/../../../../pic32c/lib/thumb/v6-m/nofp\libc-musl.a(__printf_core.o)
 .rodata        0x000045c8       0x18 build/default/production/_ext/1662611032/kronocommuart_sam.o

.text.sync_config%157
                0x000045e0       0x18
 .text.sync_config
                0x000045e0       0x18 ..\src\config\default\touch\lib\qtm_acq_samc21_0x0020.X.a(sam_acq_x_samc21.o)

.text.get_key_delta%158
                0x000045f8       0x18
 .text.get_key_delta
                0x000045f8       0x18 ..\src\config\default\touch\lib\qtm_surface_cs_2t_cm0p_0x0025.X.a(sam_surface_cs_2t_x_cm0p.o)

.text.__vfprintf%159
                0x00004610       0x18
 .text.__vfprintf
                0x00004610       0x18 c:/program files/microchip/xc32/v4.21/bin/bin/../../lib/gcc/pic32c/8.3.1/../../../../pic32c/lib/thumb/v6-m/nofp\libc-musl.a(__int_vfprintf.o)
                0x00004610                __vfprintf

.text%160       0x00004628       0x48
 .text          0x00004628       0x18 c:/program files/microchip/xc32/v4.21/bin/bin/../../lib/gcc/pic32c/8.3.1/thumb/v6-m/nofp\libgcc.a(_lshrdi3.o)
                0x00004628                __lshrdi3
                0x00004628                __aeabi_llsr
 .text          0x00004640       0x18 c:/program files/microchip/xc32/v4.21/bin/bin/../../lib/gcc/pic32c/8.3.1/thumb/v6-m/nofp\libgcc.a(_ashldi3.o)
                0x00004640                __aeabi_llsl
                0x00004640                __ashldi3
 .text          0x00004658       0x18 c:/program files/microchip/xc32/v4.21/bin/bin/../../lib/gcc/pic32c/8.3.1/thumb/v6-m/nofp\libgcc.a(_clzdi2.o)
                0x00004658                __clzdi2

.text.__wrap_sprintf%163
                0x00004670       0x16
 .text.__wrap_sprintf
                0x00004670       0x16 c:/program files/microchip/xc32/v4.21/bin/bin/../../lib/gcc/pic32c/8.3.1/../../../../pic32c/lib/thumb/v6-m/nofp\libc-musl.a(__sio_sprintf_doux.o)
                0x00004670                _sprintf_cdnopuxX
                0x00004670                __sprintf_oxX
                0x00004670                _dsprintf_cdnopuxX

.text.RTC_Timer32CounterSet%164
                0x00004688       0x14
 .text.RTC_Timer32CounterSet
                0x00004688       0x14 build/default/production/_ext/60180175/plib_rtc_timer.o
                0x00004688                RTC_Timer32CounterSet

.text.RTC_Timer32CompareSet%165
                0x0000469c       0x14
 .text.RTC_Timer32CompareSet
                0x0000469c       0x14 build/default/production/_ext/60180175/plib_rtc_timer.o
                0x0000469c                RTC_Timer32CompareSet

.text.qtm_ptc_qtlib_assign_signal_memory%166
                0x000046b0       0x14
 .text.qtm_ptc_qtlib_assign_signal_memory
                0x000046b0       0x14 ..\src\config\default\touch\lib\qtm_acq_samc21_0x0020.X.a(sam_acq_x_samc21.o)
                0x000046b0                qtm_ptc_qtlib_assign_signal_memory

.text.Gestures_QueryStatus%167
                0x000046c4       0x14
 .text.Gestures_QueryStatus
                0x000046c4       0x14 ..\src\config\default\touch\lib\qtm_surface_gestures_cm0p_0x0023.X.a(sam_surface_gestures_x_cm0p.o)
                0x000046c4                Gestures_QueryStatus

.text.qtm_gestures_2d_clearGesture%168
                0x000046d8       0x14
 .text.qtm_gestures_2d_clearGesture
                0x000046d8       0x14 ..\src\config\default\touch\lib\qtm_surface_gestures_cm0p_0x0023.X.a(sam_surface_gestures_x_cm0p.o)
                0x000046d8                qtm_gestures_2d_clearGesture

.text.qtm_update_gesture_2d_timer%169
                0x000046ec       0x14
 .text.qtm_update_gesture_2d_timer
                0x000046ec       0x14 ..\src\config\default\touch\lib\qtm_surface_gestures_cm0p_0x0023.X.a(sam_surface_gestures_x_cm0p.o)
                0x000046ec                qtm_update_gesture_2d_timer

.text.__vsprintf%170
                0x00004700       0x14
 .text.__vsprintf
                0x00004700       0x14 c:/program files/microchip/xc32/v4.21/bin/bin/../../lib/gcc/pic32c/8.3.1/../../../../pic32c/lib/thumb/v6-m/nofp\libc-musl.a(__int_vsprintf.o)
                0x00004700                __vsprintf

.text%171       0x00004714       0x14
 .text          0x00004714       0x14 c:/program files/microchip/xc32/v4.21/bin/bin/../../lib/gcc/pic32c/8.3.1/thumb/v6-m/nofp\libgcc.a(_thumb1_case_uhi.o)
                0x00004714                __gnu_thumb1_case_uhi

.text.memcpy%172
                0x00004728       0x12
 .text.memcpy   0x00004728       0x12 c:/program files/microchip/xc32/v4.21/bin/bin/../../lib/gcc/pic32c/8.3.1/../../../../pic32c/lib/thumb/v6-m/nofp\libc-musl.a(memcpy.o)
                0x00004728                memcpy

.text.EVSYS_Initialize%173
                0x0000473c       0x10
 .text.EVSYS_Initialize
                0x0000473c       0x10 build/default/production/_ext/1986646378/plib_evsys.o
                0x0000473c                EVSYS_Initialize

.text.qtm_update_qtlib_timer%174
                0x0000474c       0x10
 .text.qtm_update_qtlib_timer
                0x0000474c       0x10 ..\src\config\default\touch\lib\qtm_touch_key_cm0p_0x0002.X.a(sam_touch_key_x_cm0p.o)
                0x0000474c                qtm_update_qtlib_timer

.text.memset%175
                0x0000475c       0x10
 .text.memset   0x0000475c       0x10 c:/program files/microchip/xc32/v4.21/bin/bin/../../lib/gcc/pic32c/8.3.1/../../../../pic32c/lib/thumb/v6-m/nofp\libc-musl.a(memset.o)
                0x0000475c                memset

.text.strlen%176
                0x0000476c       0x10
 .text.strlen   0x0000476c       0x10 c:/program files/microchip/xc32/v4.21/bin/bin/../../lib/gcc/pic32c/8.3.1/../../../../pic32c/lib/thumb/v6-m/nofp\libc-musl.a(strlen.o)
                0x0000476c                strlen

.text.main%177  0x0000477c        0xe
 .text.main     0x0000477c        0xe build/default/production/_ext/1360937237/main.o
                0x0000477c                main

.text.tolower%178
                0x0000478a        0xe
 .text.tolower  0x0000478a        0xe c:/program files/microchip/xc32/v4.21/bin/bin/../../lib/gcc/pic32c/8.3.1/../../../../pic32c/lib/thumb/v6-m/nofp\libc-musl.a(tolower.o)
                0x0000478a                tolower

.text.toupper%179
                0x00004798        0xe
 .text.toupper  0x00004798        0xe c:/program files/microchip/xc32/v4.21/bin/bin/../../lib/gcc/pic32c/8.3.1/../../../../pic32c/lib/thumb/v6-m/nofp\libc-musl.a(toupper.o)
                0x00004798                toupper

.text.NVMCTRL_Initialize%180
                0x000047a8        0xc
 .text.NVMCTRL_Initialize
                0x000047a8        0xc build/default/production/_ext/1593096446/plib_nvmctrl.o
                0x000047a8                NVMCTRL_Initialize

.text.RTC_Timer32CallbackRegister%181
                0x000047b4        0xc
 .text.RTC_Timer32CallbackRegister
                0x000047b4        0xc build/default/production/_ext/60180175/plib_rtc_timer.o
                0x000047b4                RTC_Timer32CallbackRegister

.text.SERCOM4_USART_WriteCallbackRegister%182
                0x000047c0        0xc
 .text.SERCOM4_USART_WriteCallbackRegister
                0x000047c0        0xc build/default/production/_ext/504274921/plib_sercom4_usart.o
                0x000047c0                SERCOM4_USART_WriteCallbackRegister

.text.SERCOM4_USART_ReadCallbackRegister%183
                0x000047cc        0xc
 .text.SERCOM4_USART_ReadCallbackRegister
                0x000047cc        0xc build/default/production/_ext/504274921/plib_sercom4_usart.o
                0x000047cc                SERCOM4_USART_ReadCallbackRegister

.text.qtm_measure_complete_callback%184
                0x000047d8        0xc
 .text.qtm_measure_complete_callback
                0x000047d8        0xc build/default/production/_ext/162237794/touch.o

.text.PTC_Handler%185
                0x000047e4        0xc
 .text.PTC_Handler
                0x000047e4        0xc build/default/production/_ext/162237794/touch.o
                0x000047e4                PTC_Handler

.text.rtc_cb%186
                0x000047f0        0x8
 .text.rtc_cb   0x000047f0        0x8 build/default/production/_ext/162237794/touch.o
                0x000047f0                rtc_cb

.text.__pic32c_data_initialization%187
                0x000047f8        0x8
 .text.__pic32c_data_initialization
                0x000047f8        0x8 c:/program files/microchip/xc32/v4.21/bin/bin/../../lib/gcc/pic32c/8.3.1/../../../../pic32c/lib/thumb/v6-m/nofp\libpic32c.a(data_init_wrapper.o)
                0x000047f8                __pic32c_data_initialization

.rodata%188     0x00004800        0x7
 .rodata        0x00004800        0x7 c:/program files/microchip/xc32/v4.21/bin/bin/../../lib/gcc/pic32c/8.3.1/../../../../pic32c/lib/thumb/v6-m/nofp\libc-musl.a(__fmt_s.o)

.text.__dummy_fmt4%189
                0x00004808        0x4
 .text.__dummy_fmt4
                0x00004808        0x4 c:/program files/microchip/xc32/v4.21/bin/bin/../../lib/gcc/pic32c/8.3.1/../../../../pic32c/lib/thumb/v6-m/nofp\libc-musl.a(__printf_core.o)
                0x00004808                __fmt_fp
                0x00004808                __fmt_a

.text%190       0x0000480c        0x4
 .text          0x0000480c        0x4 c:/program files/microchip/xc32/v4.21/bin/bin/../../lib/gcc/pic32c/8.3.1/thumb/v6-m/nofp\libgcc.a(_dvmd_tls.o)
                0x0000480c                __aeabi_idiv0
                0x0000480c                __aeabi_ldiv0

.text.Dummy_Handler%191
                0x00002dee        0x2
 .text.Dummy_Handler
                0x00002dee        0x2 build/default/production/_ext/1171490990/interrupts.o
                0x00002dee                SVCall_Handler
                0x00002dee                DMAC_Handler
                0x00002dee                TC2_Handler
                0x00002dee                AC_Handler
                0x00002dee                SysTick_Handler
                0x00002dee                PendSV_Handler
                0x00002dee                SERCOM1_Handler
                0x00002dee                TCC1_Handler
                0x00002dee                SERCOM2_Handler
                0x00002dee                TCC0_Handler
                0x00002dee                ADC1_Handler
                0x00002dee                EIC_Handler
                0x00002dee                WDT_Handler
                0x00002dee                CAN0_Handler
                0x00002dee                TC4_Handler
                0x00002dee                TC1_Handler
                0x00002dee                TC3_Handler
                0x00002dee                SDADC_Handler
                0x00002dee                Dummy_Handler
                0x00002dee                SERCOM5_Handler
                0x00002dee                CAN1_Handler
                0x00002dee                ADC0_Handler
                0x00002dee                TSENS_Handler
                0x00002dee                TCC2_Handler
                0x00002dee                EVSYS_Handler
                0x00002dee                SERCOM3_Handler
                0x00002dee                NVMCTRL_Handler
                0x00002dee                SYSTEM_Handler
                0x00002dee                SERCOM0_Handler
                0x00002dee                DAC_Handler
                0x00002dee                FREQM_Handler
                0x00002dee                TC0_Handler

.text.NonMaskableInt_Handler%192
                0x0000380e        0x2
 .text.NonMaskableInt_Handler
                0x0000380e        0x2 build/default/production/_ext/1171490990/exceptions.o
                0x0000380e                NonMaskableInt_Handler

.text.HardFault_Handler%193
                0x000039ca        0x2
 .text.HardFault_Handler
                0x000039ca        0x2 build/default/production/_ext/1171490990/exceptions.o
                0x000039ca                HardFault_Handler

.text.Dummy_App_Func%194
                0x00003dce        0x2
 .text.Dummy_App_Func
                0x00003dce        0x2 build/default/production/_ext/1171490990/startup_xc32.o
                0x00003dce                _on_reset
                0x00003dce                _on_bootstrap
                0x00003dce                __xc32_on_reset
                0x00003dce                Dummy_App_Func
                0x00003dce                __xc32_on_bootstrap

.text.__dummy%195
                0x0000410a        0x2
 .text.__dummy  0x0000410a        0x2 c:/program files/microchip/xc32/v4.21/bin/bin/../../lib/gcc/pic32c/8.3.1/../../../../pic32c/lib/thumb/v6-m/nofp\libc-musl.a(__libc_start_main.o)
                0x0000410a                __init_stdio
                0x0000410a                __init_host
